
GccApplication1.elf:     file format elf32-avr

Sections:
Idx Name          Size      VMA       LMA       File off  Algn
  0 .data         0000001c  00800200  00001af4  00001b88  2**0
                  CONTENTS, ALLOC, LOAD, DATA
  1 .text         00001af4  00000000  00000000  00000094  2**1
                  CONTENTS, ALLOC, LOAD, READONLY, CODE
  2 .bss          0000007a  0080021c  0080021c  00001ba4  2**0
                  ALLOC
  3 .comment      0000005c  00000000  00000000  00001ba4  2**0
                  CONTENTS, READONLY
  4 .note.gnu.avr.deviceinfo 00000040  00000000  00000000  00001c00  2**2
                  CONTENTS, READONLY
  5 .debug_aranges 000000f8  00000000  00000000  00001c40  2**0
                  CONTENTS, READONLY, DEBUGGING
  6 .debug_info   00001993  00000000  00000000  00001d38  2**0
                  CONTENTS, READONLY, DEBUGGING
  7 .debug_abbrev 00000de1  00000000  00000000  000036cb  2**0
                  CONTENTS, READONLY, DEBUGGING
  8 .debug_line   00000b02  00000000  00000000  000044ac  2**0
                  CONTENTS, READONLY, DEBUGGING
  9 .debug_frame  000002c0  00000000  00000000  00004fb0  2**2
                  CONTENTS, READONLY, DEBUGGING
 10 .debug_str    00000801  00000000  00000000  00005270  2**0
                  CONTENTS, READONLY, DEBUGGING
 11 .debug_loc    00000962  00000000  00000000  00005a71  2**0
                  CONTENTS, READONLY, DEBUGGING
 12 .debug_ranges 000000e8  00000000  00000000  000063d3  2**0
                  CONTENTS, READONLY, DEBUGGING

Disassembly of section .text:

00000000 <__vectors>:
       0:	05 c1       	rjmp	.+522    	; 0x20c <__ctors_end>
       2:	00 00       	nop
       4:	23 c1       	rjmp	.+582    	; 0x24c <__bad_interrupt>
       6:	00 00       	nop
       8:	21 c1       	rjmp	.+578    	; 0x24c <__bad_interrupt>
       a:	00 00       	nop
       c:	1f c1       	rjmp	.+574    	; 0x24c <__bad_interrupt>
       e:	00 00       	nop
      10:	1d c1       	rjmp	.+570    	; 0x24c <__bad_interrupt>
      12:	00 00       	nop
      14:	38 c5       	rjmp	.+2672   	; 0xa86 <__vector_5>
      16:	00 00       	nop
      18:	19 c1       	rjmp	.+562    	; 0x24c <__bad_interrupt>
      1a:	00 00       	nop
      1c:	17 c1       	rjmp	.+558    	; 0x24c <__bad_interrupt>
      1e:	00 00       	nop
      20:	15 c1       	rjmp	.+554    	; 0x24c <__bad_interrupt>
      22:	00 00       	nop
      24:	13 c1       	rjmp	.+550    	; 0x24c <__bad_interrupt>
      26:	00 00       	nop
      28:	11 c1       	rjmp	.+546    	; 0x24c <__bad_interrupt>
      2a:	00 00       	nop
      2c:	0f c1       	rjmp	.+542    	; 0x24c <__bad_interrupt>
      2e:	00 00       	nop
      30:	0d c1       	rjmp	.+538    	; 0x24c <__bad_interrupt>
      32:	00 00       	nop
      34:	0b c1       	rjmp	.+534    	; 0x24c <__bad_interrupt>
      36:	00 00       	nop
      38:	09 c1       	rjmp	.+530    	; 0x24c <__bad_interrupt>
      3a:	00 00       	nop
      3c:	07 c1       	rjmp	.+526    	; 0x24c <__bad_interrupt>
      3e:	00 00       	nop
      40:	05 c1       	rjmp	.+522    	; 0x24c <__bad_interrupt>
      42:	00 00       	nop
      44:	e1 c4       	rjmp	.+2498   	; 0xa08 <__vector_17>
      46:	00 00       	nop
      48:	01 c1       	rjmp	.+514    	; 0x24c <__bad_interrupt>
      4a:	00 00       	nop
      4c:	ff c0       	rjmp	.+510    	; 0x24c <__bad_interrupt>
      4e:	00 00       	nop
      50:	fd c0       	rjmp	.+506    	; 0x24c <__bad_interrupt>
      52:	00 00       	nop
      54:	fb c0       	rjmp	.+502    	; 0x24c <__bad_interrupt>
      56:	00 00       	nop
      58:	f9 c0       	rjmp	.+498    	; 0x24c <__bad_interrupt>
      5a:	00 00       	nop
      5c:	f7 c0       	rjmp	.+494    	; 0x24c <__bad_interrupt>
      5e:	00 00       	nop
      60:	f5 c0       	rjmp	.+490    	; 0x24c <__bad_interrupt>
      62:	00 00       	nop
      64:	f3 c0       	rjmp	.+486    	; 0x24c <__bad_interrupt>
      66:	00 00       	nop
      68:	f1 c0       	rjmp	.+482    	; 0x24c <__bad_interrupt>
      6a:	00 00       	nop
      6c:	ef c0       	rjmp	.+478    	; 0x24c <__bad_interrupt>
      6e:	00 00       	nop
      70:	ed c0       	rjmp	.+474    	; 0x24c <__bad_interrupt>
      72:	00 00       	nop
      74:	eb c0       	rjmp	.+470    	; 0x24c <__bad_interrupt>
      76:	00 00       	nop
      78:	e9 c0       	rjmp	.+466    	; 0x24c <__bad_interrupt>
      7a:	00 00       	nop
      7c:	e7 c0       	rjmp	.+462    	; 0x24c <__bad_interrupt>
      7e:	00 00       	nop
      80:	e5 c0       	rjmp	.+458    	; 0x24c <__bad_interrupt>
      82:	00 00       	nop
      84:	e3 c0       	rjmp	.+454    	; 0x24c <__bad_interrupt>
      86:	00 00       	nop
      88:	e1 c0       	rjmp	.+450    	; 0x24c <__bad_interrupt>
      8a:	00 00       	nop
      8c:	df c0       	rjmp	.+446    	; 0x24c <__bad_interrupt>
      8e:	00 00       	nop
      90:	dd c0       	rjmp	.+442    	; 0x24c <__bad_interrupt>
      92:	00 00       	nop
      94:	db c0       	rjmp	.+438    	; 0x24c <__bad_interrupt>
      96:	00 00       	nop
      98:	d9 c0       	rjmp	.+434    	; 0x24c <__bad_interrupt>
      9a:	00 00       	nop
      9c:	d7 c0       	rjmp	.+430    	; 0x24c <__bad_interrupt>
      9e:	00 00       	nop
      a0:	d5 c0       	rjmp	.+426    	; 0x24c <__bad_interrupt>
      a2:	00 00       	nop
      a4:	d3 c0       	rjmp	.+422    	; 0x24c <__bad_interrupt>
      a6:	00 00       	nop
      a8:	d1 c0       	rjmp	.+418    	; 0x24c <__bad_interrupt>
      aa:	00 00       	nop
      ac:	cf c0       	rjmp	.+414    	; 0x24c <__bad_interrupt>
      ae:	00 00       	nop
      b0:	cd c0       	rjmp	.+410    	; 0x24c <__bad_interrupt>
      b2:	00 00       	nop
      b4:	cb c0       	rjmp	.+406    	; 0x24c <__bad_interrupt>
      b6:	00 00       	nop
      b8:	c9 c0       	rjmp	.+402    	; 0x24c <__bad_interrupt>
      ba:	00 00       	nop
      bc:	c7 c0       	rjmp	.+398    	; 0x24c <__bad_interrupt>
      be:	00 00       	nop
      c0:	c5 c0       	rjmp	.+394    	; 0x24c <__bad_interrupt>
      c2:	00 00       	nop
      c4:	c3 c0       	rjmp	.+390    	; 0x24c <__bad_interrupt>
      c6:	00 00       	nop
      c8:	c1 c0       	rjmp	.+386    	; 0x24c <__bad_interrupt>
      ca:	00 00       	nop
      cc:	bf c0       	rjmp	.+382    	; 0x24c <__bad_interrupt>
      ce:	00 00       	nop
      d0:	bd c0       	rjmp	.+378    	; 0x24c <__bad_interrupt>
      d2:	00 00       	nop
      d4:	bb c0       	rjmp	.+374    	; 0x24c <__bad_interrupt>
      d6:	00 00       	nop
      d8:	b9 c0       	rjmp	.+370    	; 0x24c <__bad_interrupt>
      da:	00 00       	nop
      dc:	b7 c0       	rjmp	.+366    	; 0x24c <__bad_interrupt>
      de:	00 00       	nop
      e0:	b5 c0       	rjmp	.+362    	; 0x24c <__bad_interrupt>
      e2:	00 00       	nop
      e4:	08 4a       	sbci	r16, 0xA8	; 168
      e6:	d7 3b       	cpi	r29, 0xB7	; 183
      e8:	3b ce       	rjmp	.-906    	; 0xfffffd60 <__eeprom_end+0xff7efd60>
      ea:	01 6e       	ori	r16, 0xE1	; 225
      ec:	84 bc       	out	0x24, r8	; 36
      ee:	bf fd       	.word	0xfdbf	; ????
      f0:	c1 2f       	mov	r28, r17
      f2:	3d 6c       	ori	r19, 0xCD	; 205
      f4:	74 31       	cpi	r23, 0x14	; 20
      f6:	9a bd       	out	0x2a, r25	; 42
      f8:	56 83       	std	Z+6, r21	; 0x06
      fa:	3d da       	rcall	.-2950   	; 0xfffff576 <__eeprom_end+0xff7ef576>
      fc:	3d 00       	.word	0x003d	; ????
      fe:	c7 7f       	andi	r28, 0xF7	; 247
     100:	11 be       	out	0x31, r1	; 49
     102:	d9 e4       	ldi	r29, 0x49	; 73
     104:	bb 4c       	sbci	r27, 0xCB	; 203
     106:	3e 91       	ld	r19, -X
     108:	6b aa       	std	Y+51, r6	; 0x33
     10a:	aa be       	out	0x3a, r10	; 58
     10c:	00 00       	nop
     10e:	00 80       	ld	r0, Z
     110:	3f 00       	.word	0x003f	; ????

00000112 <__trampolines_end>:
     112:	00 40       	sbci	r16, 0x00	; 0
     114:	7a 10       	cpse	r7, r10
     116:	f3 5a       	subi	r31, 0xA3	; 163
     118:	00 a0       	ldd	r0, Z+32	; 0x20
     11a:	72 4e       	sbci	r23, 0xE2	; 226
     11c:	18 09       	sbc	r17, r8
     11e:	00 10       	cpse	r0, r0
     120:	a5 d4       	rcall	.+2378   	; 0xa6c <__vector_17+0x64>
     122:	e8 00       	.word	0x00e8	; ????
     124:	00 e8       	ldi	r16, 0x80	; 128
     126:	76 48       	sbci	r23, 0x86	; 134
     128:	17 00       	.word	0x0017	; ????
     12a:	00 e4       	ldi	r16, 0x40	; 64
     12c:	0b 54       	subi	r16, 0x4B	; 75
     12e:	02 00       	.word	0x0002	; ????
     130:	00 ca       	rjmp	.-3072   	; 0xfffff532 <__eeprom_end+0xff7ef532>
     132:	9a 3b       	cpi	r25, 0xBA	; 186
     134:	00 00       	nop
     136:	00 e1       	ldi	r16, 0x10	; 16
     138:	f5 05       	cpc	r31, r5
     13a:	00 00       	nop
     13c:	80 96       	adiw	r24, 0x20	; 32
     13e:	98 00       	.word	0x0098	; ????
     140:	00 00       	nop
     142:	40 42       	sbci	r20, 0x20	; 32
     144:	0f 00       	.word	0x000f	; ????
     146:	00 00       	nop
     148:	a0 86       	std	Z+8, r10	; 0x08
     14a:	01 00       	.word	0x0001	; ????
     14c:	00 00       	nop
     14e:	10 27       	eor	r17, r16
     150:	00 00       	nop
     152:	00 00       	nop
     154:	e8 03       	fmulsu	r22, r16
     156:	00 00       	nop
     158:	00 00       	nop
     15a:	64 00       	.word	0x0064	; ????
     15c:	00 00       	nop
     15e:	00 00       	nop
     160:	0a 00       	.word	0x000a	; ????
     162:	00 00       	nop
     164:	00 00       	nop
     166:	01 00       	.word	0x0001	; ????
     168:	00 00       	nop
     16a:	00 00       	nop
     16c:	2c 76       	andi	r18, 0x6C	; 108
     16e:	d8 88       	ldd	r13, Y+16	; 0x10
     170:	dc 67       	ori	r29, 0x7C	; 124
     172:	4f 08       	sbc	r4, r15
     174:	23 df       	rcall	.-442    	; 0xffffffbc <__eeprom_end+0xff7effbc>
     176:	c1 df       	rcall	.-126    	; 0xfa <__SREG__+0xbb>
     178:	ae 59       	subi	r26, 0x9E	; 158
     17a:	e1 b1       	in	r30, 0x01	; 1
     17c:	b7 96       	adiw	r30, 0x27	; 39
     17e:	e5 e3       	ldi	r30, 0x35	; 53
     180:	e4 53       	subi	r30, 0x34	; 52
     182:	c6 3a       	cpi	r28, 0xA6	; 166
     184:	e6 51       	subi	r30, 0x16	; 22
     186:	99 76       	andi	r25, 0x69	; 105
     188:	96 e8       	ldi	r25, 0x86	; 134
     18a:	e6 c2       	rjmp	.+1484   	; 0x758 <LCDDisplay+0x74>
     18c:	84 26       	eor	r8, r20
     18e:	eb 89       	ldd	r30, Y+19	; 0x13
     190:	8c 9b       	sbis	0x11, 4	; 17
     192:	62 ed       	ldi	r22, 0xD2	; 210
     194:	40 7c       	andi	r20, 0xC0	; 192
     196:	6f fc       	.word	0xfc6f	; ????
     198:	ef bc       	out	0x2f, r14	; 47
     19a:	9c 9f       	mul	r25, r28
     19c:	40 f2       	brcs	.-112    	; 0x12e <__trampolines_end+0x1c>
     19e:	ba a5       	ldd	r27, Y+42	; 0x2a
     1a0:	6f a5       	ldd	r22, Y+47	; 0x2f
     1a2:	f4 90       	lpm	r15, Z
     1a4:	05 5a       	subi	r16, 0xA5	; 165
     1a6:	2a f7       	brpl	.-54     	; 0x172 <__trampolines_end+0x60>
     1a8:	5c 93       	st	X, r21
     1aa:	6b 6c       	ori	r22, 0xCB	; 203
     1ac:	f9 67       	ori	r31, 0x79	; 121
     1ae:	6d c1       	rjmp	.+730    	; 0x48a <__LOCK_REGION_LENGTH__+0x8a>
     1b0:	1b fc       	.word	0xfc1b	; ????
     1b2:	e0 e4       	ldi	r30, 0x40	; 64
     1b4:	0d 47       	sbci	r16, 0x7D	; 125
     1b6:	fe f5       	brtc	.+126    	; 0x236 <__do_clear_bss>
     1b8:	20 e6       	ldi	r18, 0x60	; 96
     1ba:	b5 00       	.word	0x00b5	; ????
     1bc:	d0 ed       	ldi	r29, 0xD0	; 208
     1be:	90 2e       	mov	r9, r16
     1c0:	03 00       	.word	0x0003	; ????
     1c2:	94 35       	cpi	r25, 0x54	; 84
     1c4:	77 05       	cpc	r23, r7
     1c6:	00 80       	ld	r0, Z
     1c8:	84 1e       	adc	r8, r20
     1ca:	08 00       	.word	0x0008	; ????
     1cc:	00 20       	and	r0, r0
     1ce:	4e 0a       	sbc	r4, r30
     1d0:	00 00       	nop
     1d2:	00 c8       	rjmp	.-4096   	; 0xfffff1d4 <__eeprom_end+0xff7ef1d4>
     1d4:	0c 33       	cpi	r16, 0x3C	; 60
     1d6:	33 33       	cpi	r19, 0x33	; 51
     1d8:	33 0f       	add	r19, r19
     1da:	98 6e       	ori	r25, 0xE8	; 232
     1dc:	12 83       	std	Z+2, r17	; 0x02
     1de:	11 41       	sbci	r17, 0x11	; 17
     1e0:	ef 8d       	ldd	r30, Y+31	; 0x1f
     1e2:	21 14       	cp	r2, r1
     1e4:	89 3b       	cpi	r24, 0xB9	; 185
     1e6:	e6 55       	subi	r30, 0x56	; 86
     1e8:	16 cf       	rjmp	.-468    	; 0x16 <__FUSE_REGION_LENGTH__+0x13>
     1ea:	fe e6       	ldi	r31, 0x6E	; 110
     1ec:	db 18       	sub	r13, r11
     1ee:	d1 84       	ldd	r13, Z+9	; 0x09
     1f0:	4b 38       	cpi	r20, 0x8B	; 139
     1f2:	1b f7       	brvc	.-58     	; 0x1ba <__trampolines_end+0xa8>
     1f4:	7c 1d       	adc	r23, r12
     1f6:	90 1d       	adc	r25, r0
     1f8:	a4 bb       	out	0x14, r26	; 20
     1fa:	e4 24       	eor	r14, r4
     1fc:	20 32       	cpi	r18, 0x20	; 32
     1fe:	84 72       	andi	r24, 0x24	; 36
     200:	5e 22       	and	r5, r30
     202:	81 00       	.word	0x0081	; ????
     204:	c9 f1       	breq	.+114    	; 0x278 <I2C_Repeated_Start+0x1e>
     206:	24 ec       	ldi	r18, 0xC4	; 196
     208:	a1 e5       	ldi	r26, 0x51	; 81
     20a:	3d 27       	eor	r19, r29

0000020c <__ctors_end>:
     20c:	11 24       	eor	r1, r1
     20e:	1f be       	out	0x3f, r1	; 63
     210:	cf ef       	ldi	r28, 0xFF	; 255
     212:	d1 e2       	ldi	r29, 0x21	; 33
     214:	de bf       	out	0x3e, r29	; 62
     216:	cd bf       	out	0x3d, r28	; 61
     218:	00 e0       	ldi	r16, 0x00	; 0
     21a:	0c bf       	out	0x3c, r16	; 60

0000021c <__do_copy_data>:
     21c:	12 e0       	ldi	r17, 0x02	; 2
     21e:	a0 e0       	ldi	r26, 0x00	; 0
     220:	b2 e0       	ldi	r27, 0x02	; 2
     222:	e4 ef       	ldi	r30, 0xF4	; 244
     224:	fa e1       	ldi	r31, 0x1A	; 26
     226:	00 e0       	ldi	r16, 0x00	; 0
     228:	0b bf       	out	0x3b, r16	; 59
     22a:	02 c0       	rjmp	.+4      	; 0x230 <__do_copy_data+0x14>
     22c:	07 90       	elpm	r0, Z+
     22e:	0d 92       	st	X+, r0
     230:	ac 31       	cpi	r26, 0x1C	; 28
     232:	b1 07       	cpc	r27, r17
     234:	d9 f7       	brne	.-10     	; 0x22c <__do_copy_data+0x10>

00000236 <__do_clear_bss>:
     236:	22 e0       	ldi	r18, 0x02	; 2
     238:	ac e1       	ldi	r26, 0x1C	; 28
     23a:	b2 e0       	ldi	r27, 0x02	; 2
     23c:	01 c0       	rjmp	.+2      	; 0x240 <.do_clear_bss_start>

0000023e <.do_clear_bss_loop>:
     23e:	1d 92       	st	X+, r1

00000240 <.do_clear_bss_start>:
     240:	a6 39       	cpi	r26, 0x96	; 150
     242:	b2 07       	cpc	r27, r18
     244:	e1 f7       	brne	.-8      	; 0x23e <.do_clear_bss_loop>
     246:	f1 d2       	rcall	.+1506   	; 0x82a <main>
     248:	0c 94 78 0d 	jmp	0x1af0	; 0x1af0 <_exit>

0000024c <__bad_interrupt>:
     24c:	d9 ce       	rjmp	.-590    	; 0x0 <__vectors>

0000024e <I2C_Init>:
	TIMSK1 |= (1<<OCIE1A);	 // Timer 1 compare interrupt 1 enable
}

void disableTimerInterrupt1(void)
{
	TIMSK1 &= ~(1<<OCIE1A);	 // Timer 1 compare interrupt 1 disable
     24e:	10 92 b9 00 	sts	0x00B9, r1	; 0x8000b9 <__TEXT_REGION_LENGTH__+0x7c00b9>
     252:	88 e4       	ldi	r24, 0x48	; 72
     254:	80 93 b8 00 	sts	0x00B8, r24	; 0x8000b8 <__TEXT_REGION_LENGTH__+0x7c00b8>
     258:	08 95       	ret

0000025a <I2C_Repeated_Start>:
     25a:	94 ea       	ldi	r25, 0xA4	; 164
     25c:	90 93 bc 00 	sts	0x00BC, r25	; 0x8000bc <__TEXT_REGION_LENGTH__+0x7c00bc>
     260:	90 91 bc 00 	lds	r25, 0x00BC	; 0x8000bc <__TEXT_REGION_LENGTH__+0x7c00bc>
     264:	99 23       	and	r25, r25
     266:	e4 f7       	brge	.-8      	; 0x260 <I2C_Repeated_Start+0x6>
     268:	90 91 b9 00 	lds	r25, 0x00B9	; 0x8000b9 <__TEXT_REGION_LENGTH__+0x7c00b9>
     26c:	98 7f       	andi	r25, 0xF8	; 248
     26e:	90 31       	cpi	r25, 0x10	; 16
     270:	91 f4       	brne	.+36     	; 0x296 <I2C_Repeated_Start+0x3c>
     272:	80 93 bb 00 	sts	0x00BB, r24	; 0x8000bb <__TEXT_REGION_LENGTH__+0x7c00bb>
     276:	84 e8       	ldi	r24, 0x84	; 132
     278:	80 93 bc 00 	sts	0x00BC, r24	; 0x8000bc <__TEXT_REGION_LENGTH__+0x7c00bc>
     27c:	80 91 bc 00 	lds	r24, 0x00BC	; 0x8000bc <__TEXT_REGION_LENGTH__+0x7c00bc>
     280:	88 23       	and	r24, r24
     282:	e4 f7       	brge	.-8      	; 0x27c <I2C_Repeated_Start+0x22>
     284:	80 91 b9 00 	lds	r24, 0x00B9	; 0x8000b9 <__TEXT_REGION_LENGTH__+0x7c00b9>
     288:	88 7f       	andi	r24, 0xF8	; 248
     28a:	80 34       	cpi	r24, 0x40	; 64
     28c:	31 f0       	breq	.+12     	; 0x29a <I2C_Repeated_Start+0x40>
     28e:	80 32       	cpi	r24, 0x20	; 32
     290:	31 f4       	brne	.+12     	; 0x29e <I2C_Repeated_Start+0x44>
     292:	82 e0       	ldi	r24, 0x02	; 2
     294:	08 95       	ret
     296:	80 e0       	ldi	r24, 0x00	; 0
     298:	08 95       	ret
     29a:	81 e0       	ldi	r24, 0x01	; 1
     29c:	08 95       	ret
     29e:	83 e0       	ldi	r24, 0x03	; 3
     2a0:	08 95       	ret

000002a2 <I2C_Stop>:
     2a2:	84 e9       	ldi	r24, 0x94	; 148
     2a4:	80 93 bc 00 	sts	0x00BC, r24	; 0x8000bc <__TEXT_REGION_LENGTH__+0x7c00bc>
     2a8:	80 91 bc 00 	lds	r24, 0x00BC	; 0x8000bc <__TEXT_REGION_LENGTH__+0x7c00bc>
     2ac:	84 fd       	sbrc	r24, 4
     2ae:	fc cf       	rjmp	.-8      	; 0x2a8 <I2C_Stop+0x6>
     2b0:	08 95       	ret

000002b2 <I2C_Start_Wait>:
     2b2:	cf 93       	push	r28
     2b4:	c8 2f       	mov	r28, r24
     2b6:	84 ea       	ldi	r24, 0xA4	; 164
     2b8:	80 93 bc 00 	sts	0x00BC, r24	; 0x8000bc <__TEXT_REGION_LENGTH__+0x7c00bc>
     2bc:	80 91 bc 00 	lds	r24, 0x00BC	; 0x8000bc <__TEXT_REGION_LENGTH__+0x7c00bc>
     2c0:	88 23       	and	r24, r24
     2c2:	e4 f7       	brge	.-8      	; 0x2bc <I2C_Start_Wait+0xa>
     2c4:	80 91 b9 00 	lds	r24, 0x00B9	; 0x8000b9 <__TEXT_REGION_LENGTH__+0x7c00b9>
     2c8:	88 7f       	andi	r24, 0xF8	; 248
     2ca:	88 30       	cpi	r24, 0x08	; 8
     2cc:	a1 f7       	brne	.-24     	; 0x2b6 <I2C_Start_Wait+0x4>
     2ce:	c0 93 bb 00 	sts	0x00BB, r28	; 0x8000bb <__TEXT_REGION_LENGTH__+0x7c00bb>
     2d2:	84 e8       	ldi	r24, 0x84	; 132
     2d4:	80 93 bc 00 	sts	0x00BC, r24	; 0x8000bc <__TEXT_REGION_LENGTH__+0x7c00bc>
     2d8:	80 91 bc 00 	lds	r24, 0x00BC	; 0x8000bc <__TEXT_REGION_LENGTH__+0x7c00bc>
     2dc:	88 23       	and	r24, r24
     2de:	e4 f7       	brge	.-8      	; 0x2d8 <I2C_Start_Wait+0x26>
     2e0:	80 91 b9 00 	lds	r24, 0x00B9	; 0x8000b9 <__TEXT_REGION_LENGTH__+0x7c00b9>
     2e4:	88 7f       	andi	r24, 0xF8	; 248
     2e6:	88 31       	cpi	r24, 0x18	; 24
     2e8:	11 f0       	breq	.+4      	; 0x2ee <I2C_Start_Wait+0x3c>
     2ea:	db df       	rcall	.-74     	; 0x2a2 <I2C_Stop>
     2ec:	e4 cf       	rjmp	.-56     	; 0x2b6 <I2C_Start_Wait+0x4>
     2ee:	cf 91       	pop	r28
     2f0:	08 95       	ret

000002f2 <I2C_Write>:
     2f2:	80 93 bb 00 	sts	0x00BB, r24	; 0x8000bb <__TEXT_REGION_LENGTH__+0x7c00bb>
     2f6:	84 e8       	ldi	r24, 0x84	; 132
     2f8:	80 93 bc 00 	sts	0x00BC, r24	; 0x8000bc <__TEXT_REGION_LENGTH__+0x7c00bc>
     2fc:	80 91 bc 00 	lds	r24, 0x00BC	; 0x8000bc <__TEXT_REGION_LENGTH__+0x7c00bc>
     300:	88 23       	and	r24, r24
     302:	e4 f7       	brge	.-8      	; 0x2fc <I2C_Write+0xa>
     304:	80 91 b9 00 	lds	r24, 0x00B9	; 0x8000b9 <__TEXT_REGION_LENGTH__+0x7c00b9>
     308:	88 7f       	andi	r24, 0xF8	; 248
     30a:	88 32       	cpi	r24, 0x28	; 40
     30c:	21 f0       	breq	.+8      	; 0x316 <I2C_Write+0x24>
     30e:	80 33       	cpi	r24, 0x30	; 48
     310:	21 f4       	brne	.+8      	; 0x31a <I2C_Write+0x28>
     312:	81 e0       	ldi	r24, 0x01	; 1
     314:	08 95       	ret
     316:	80 e0       	ldi	r24, 0x00	; 0
     318:	08 95       	ret
     31a:	82 e0       	ldi	r24, 0x02	; 2
     31c:	08 95       	ret

0000031e <I2C_Read_Ack>:
     31e:	84 ec       	ldi	r24, 0xC4	; 196
     320:	80 93 bc 00 	sts	0x00BC, r24	; 0x8000bc <__TEXT_REGION_LENGTH__+0x7c00bc>
     324:	80 91 bc 00 	lds	r24, 0x00BC	; 0x8000bc <__TEXT_REGION_LENGTH__+0x7c00bc>
     328:	88 23       	and	r24, r24
     32a:	e4 f7       	brge	.-8      	; 0x324 <I2C_Read_Ack+0x6>
     32c:	80 91 bb 00 	lds	r24, 0x00BB	; 0x8000bb <__TEXT_REGION_LENGTH__+0x7c00bb>
     330:	08 95       	ret

00000332 <I2C_Read_Nack>:
     332:	84 e8       	ldi	r24, 0x84	; 132
     334:	80 93 bc 00 	sts	0x00BC, r24	; 0x8000bc <__TEXT_REGION_LENGTH__+0x7c00bc>
     338:	80 91 bc 00 	lds	r24, 0x00BC	; 0x8000bc <__TEXT_REGION_LENGTH__+0x7c00bc>
     33c:	88 23       	and	r24, r24
     33e:	e4 f7       	brge	.-8      	; 0x338 <I2C_Read_Nack+0x6>
     340:	80 91 bb 00 	lds	r24, 0x00BB	; 0x8000bb <__TEXT_REGION_LENGTH__+0x7c00bb>
     344:	08 95       	ret

00000346 <initUSART>:
     346:	10 92 c5 00 	sts	0x00C5, r1	; 0x8000c5 <__TEXT_REGION_LENGTH__+0x7c00c5>
     34a:	87 e6       	ldi	r24, 0x67	; 103
     34c:	80 93 c4 00 	sts	0x00C4, r24	; 0x8000c4 <__TEXT_REGION_LENGTH__+0x7c00c4>
     350:	88 e1       	ldi	r24, 0x18	; 24
     352:	80 93 c1 00 	sts	0x00C1, r24	; 0x8000c1 <__TEXT_REGION_LENGTH__+0x7c00c1>
     356:	86 e0       	ldi	r24, 0x06	; 6
     358:	80 93 c2 00 	sts	0x00C2, r24	; 0x8000c2 <__TEXT_REGION_LENGTH__+0x7c00c2>
     35c:	08 95       	ret

0000035e <transmitUSART>:
     35e:	90 91 c0 00 	lds	r25, 0x00C0	; 0x8000c0 <__TEXT_REGION_LENGTH__+0x7c00c0>
     362:	95 ff       	sbrs	r25, 5
     364:	fc cf       	rjmp	.-8      	; 0x35e <transmitUSART>
     366:	80 93 c6 00 	sts	0x00C6, r24	; 0x8000c6 <__TEXT_REGION_LENGTH__+0x7c00c6>
     36a:	08 95       	ret

0000036c <USART_SendString>:
     36c:	0f 93       	push	r16
     36e:	1f 93       	push	r17
     370:	cf 93       	push	r28
     372:	df 93       	push	r29
     374:	8c 01       	movw	r16, r24
     376:	c0 e0       	ldi	r28, 0x00	; 0
     378:	d0 e0       	ldi	r29, 0x00	; 0
     37a:	02 c0       	rjmp	.+4      	; 0x380 <USART_SendString+0x14>
     37c:	f0 df       	rcall	.-32     	; 0x35e <transmitUSART>
     37e:	21 96       	adiw	r28, 0x01	; 1
     380:	f8 01       	movw	r30, r16
     382:	ec 0f       	add	r30, r28
     384:	fd 1f       	adc	r31, r29
     386:	80 81       	ld	r24, Z
     388:	81 11       	cpse	r24, r1
     38a:	f8 cf       	rjmp	.-16     	; 0x37c <USART_SendString+0x10>
     38c:	df 91       	pop	r29
     38e:	cf 91       	pop	r28
     390:	1f 91       	pop	r17
     392:	0f 91       	pop	r16
     394:	08 95       	ret

00000396 <MPU6050_Init>:
     396:	2f ef       	ldi	r18, 0xFF	; 255
     398:	82 e5       	ldi	r24, 0x52	; 82
     39a:	97 e0       	ldi	r25, 0x07	; 7
     39c:	21 50       	subi	r18, 0x01	; 1
     39e:	80 40       	sbci	r24, 0x00	; 0
     3a0:	90 40       	sbci	r25, 0x00	; 0
     3a2:	e1 f7       	brne	.-8      	; 0x39c <MPU6050_Init+0x6>
     3a4:	00 c0       	rjmp	.+0      	; 0x3a6 <MPU6050_Init+0x10>
     3a6:	00 00       	nop
     3a8:	80 ed       	ldi	r24, 0xD0	; 208
     3aa:	83 df       	rcall	.-250    	; 0x2b2 <I2C_Start_Wait>
     3ac:	89 e1       	ldi	r24, 0x19	; 25
     3ae:	a1 df       	rcall	.-190    	; 0x2f2 <I2C_Write>
     3b0:	87 e0       	ldi	r24, 0x07	; 7
     3b2:	9f df       	rcall	.-194    	; 0x2f2 <I2C_Write>
     3b4:	76 df       	rcall	.-276    	; 0x2a2 <I2C_Stop>
     3b6:	80 ed       	ldi	r24, 0xD0	; 208
     3b8:	7c df       	rcall	.-264    	; 0x2b2 <I2C_Start_Wait>
     3ba:	8b e6       	ldi	r24, 0x6B	; 107
     3bc:	9a df       	rcall	.-204    	; 0x2f2 <I2C_Write>
     3be:	81 e0       	ldi	r24, 0x01	; 1
     3c0:	98 df       	rcall	.-208    	; 0x2f2 <I2C_Write>
     3c2:	6f df       	rcall	.-290    	; 0x2a2 <I2C_Stop>
     3c4:	80 ed       	ldi	r24, 0xD0	; 208
     3c6:	75 df       	rcall	.-278    	; 0x2b2 <I2C_Start_Wait>
     3c8:	8a e1       	ldi	r24, 0x1A	; 26
     3ca:	93 df       	rcall	.-218    	; 0x2f2 <I2C_Write>
     3cc:	80 e0       	ldi	r24, 0x00	; 0
     3ce:	91 df       	rcall	.-222    	; 0x2f2 <I2C_Write>
     3d0:	68 df       	rcall	.-304    	; 0x2a2 <I2C_Stop>
     3d2:	80 ed       	ldi	r24, 0xD0	; 208
     3d4:	6e df       	rcall	.-292    	; 0x2b2 <I2C_Start_Wait>
     3d6:	8b e1       	ldi	r24, 0x1B	; 27
     3d8:	8c df       	rcall	.-232    	; 0x2f2 <I2C_Write>
     3da:	88 e1       	ldi	r24, 0x18	; 24
     3dc:	8a df       	rcall	.-236    	; 0x2f2 <I2C_Write>
     3de:	61 df       	rcall	.-318    	; 0x2a2 <I2C_Stop>
     3e0:	80 ed       	ldi	r24, 0xD0	; 208
     3e2:	67 df       	rcall	.-306    	; 0x2b2 <I2C_Start_Wait>
     3e4:	88 e3       	ldi	r24, 0x38	; 56
     3e6:	85 df       	rcall	.-246    	; 0x2f2 <I2C_Write>
     3e8:	81 e0       	ldi	r24, 0x01	; 1
     3ea:	83 df       	rcall	.-250    	; 0x2f2 <I2C_Write>
     3ec:	5a cf       	rjmp	.-332    	; 0x2a2 <I2C_Stop>
     3ee:	08 95       	ret

000003f0 <MPU_Start_Loc>:
     3f0:	80 ed       	ldi	r24, 0xD0	; 208
     3f2:	5f df       	rcall	.-322    	; 0x2b2 <I2C_Start_Wait>
     3f4:	8b e3       	ldi	r24, 0x3B	; 59
     3f6:	7d df       	rcall	.-262    	; 0x2f2 <I2C_Write>
     3f8:	81 ed       	ldi	r24, 0xD1	; 209
     3fa:	2f cf       	rjmp	.-418    	; 0x25a <I2C_Repeated_Start>
     3fc:	08 95       	ret

000003fe <Read_RawValue>:
     3fe:	0f 93       	push	r16
     400:	1f 93       	push	r17
     402:	cf 93       	push	r28
     404:	df 93       	push	r29
     406:	f4 df       	rcall	.-24     	; 0x3f0 <MPU_Start_Loc>
     408:	8a df       	rcall	.-236    	; 0x31e <I2C_Read_Ack>
     40a:	c8 2f       	mov	r28, r24
     40c:	d0 e0       	ldi	r29, 0x00	; 0
     40e:	dc 2f       	mov	r29, r28
     410:	cc 27       	eor	r28, r28
     412:	85 df       	rcall	.-246    	; 0x31e <I2C_Read_Ack>
     414:	be 01       	movw	r22, r28
     416:	68 2b       	or	r22, r24
     418:	0a e3       	ldi	r16, 0x3A	; 58
     41a:	12 e0       	ldi	r17, 0x02	; 2
     41c:	07 2e       	mov	r0, r23
     41e:	00 0c       	add	r0, r0
     420:	88 0b       	sbc	r24, r24
     422:	99 0b       	sbc	r25, r25
     424:	a8 d4       	rcall	.+2384   	; 0xd76 <__floatsisf>
     426:	f8 01       	movw	r30, r16
     428:	60 83       	st	Z, r22
     42a:	71 83       	std	Z+1, r23	; 0x01
     42c:	82 83       	std	Z+2, r24	; 0x02
     42e:	93 83       	std	Z+3, r25	; 0x03
     430:	76 df       	rcall	.-276    	; 0x31e <I2C_Read_Ack>
     432:	c8 2f       	mov	r28, r24
     434:	d0 e0       	ldi	r29, 0x00	; 0
     436:	dc 2f       	mov	r29, r28
     438:	cc 27       	eor	r28, r28
     43a:	71 df       	rcall	.-286    	; 0x31e <I2C_Read_Ack>
     43c:	be 01       	movw	r22, r28
     43e:	68 2b       	or	r22, r24
     440:	07 2e       	mov	r0, r23
     442:	00 0c       	add	r0, r0
     444:	88 0b       	sbc	r24, r24
     446:	99 0b       	sbc	r25, r25
     448:	96 d4       	rcall	.+2348   	; 0xd76 <__floatsisf>
     44a:	f8 01       	movw	r30, r16
     44c:	64 83       	std	Z+4, r22	; 0x04
     44e:	75 83       	std	Z+5, r23	; 0x05
     450:	86 83       	std	Z+6, r24	; 0x06
     452:	97 83       	std	Z+7, r25	; 0x07
     454:	64 df       	rcall	.-312    	; 0x31e <I2C_Read_Ack>
     456:	c8 2f       	mov	r28, r24
     458:	d0 e0       	ldi	r29, 0x00	; 0
     45a:	dc 2f       	mov	r29, r28
     45c:	cc 27       	eor	r28, r28
     45e:	5f df       	rcall	.-322    	; 0x31e <I2C_Read_Ack>
     460:	be 01       	movw	r22, r28
     462:	68 2b       	or	r22, r24
     464:	07 2e       	mov	r0, r23
     466:	00 0c       	add	r0, r0
     468:	88 0b       	sbc	r24, r24
     46a:	99 0b       	sbc	r25, r25
     46c:	84 d4       	rcall	.+2312   	; 0xd76 <__floatsisf>
     46e:	f8 01       	movw	r30, r16
     470:	60 87       	std	Z+8, r22	; 0x08
     472:	71 87       	std	Z+9, r23	; 0x09
     474:	82 87       	std	Z+10, r24	; 0x0a
     476:	93 87       	std	Z+11, r25	; 0x0b
     478:	52 df       	rcall	.-348    	; 0x31e <I2C_Read_Ack>
     47a:	c8 2f       	mov	r28, r24
     47c:	d0 e0       	ldi	r29, 0x00	; 0
     47e:	dc 2f       	mov	r29, r28
     480:	cc 27       	eor	r28, r28
     482:	4d df       	rcall	.-358    	; 0x31e <I2C_Read_Ack>
     484:	be 01       	movw	r22, r28
     486:	68 2b       	or	r22, r24
     488:	07 2e       	mov	r0, r23
     48a:	00 0c       	add	r0, r0
     48c:	88 0b       	sbc	r24, r24
     48e:	99 0b       	sbc	r25, r25
     490:	72 d4       	rcall	.+2276   	; 0xd76 <__floatsisf>
     492:	f8 01       	movw	r30, r16
     494:	64 87       	std	Z+12, r22	; 0x0c
     496:	75 87       	std	Z+13, r23	; 0x0d
     498:	86 87       	std	Z+14, r24	; 0x0e
     49a:	97 87       	std	Z+15, r25	; 0x0f
     49c:	40 df       	rcall	.-384    	; 0x31e <I2C_Read_Ack>
     49e:	c8 2f       	mov	r28, r24
     4a0:	d0 e0       	ldi	r29, 0x00	; 0
     4a2:	dc 2f       	mov	r29, r28
     4a4:	cc 27       	eor	r28, r28
     4a6:	3b df       	rcall	.-394    	; 0x31e <I2C_Read_Ack>
     4a8:	be 01       	movw	r22, r28
     4aa:	68 2b       	or	r22, r24
     4ac:	07 2e       	mov	r0, r23
     4ae:	00 0c       	add	r0, r0
     4b0:	88 0b       	sbc	r24, r24
     4b2:	99 0b       	sbc	r25, r25
     4b4:	60 d4       	rcall	.+2240   	; 0xd76 <__floatsisf>
     4b6:	f8 01       	movw	r30, r16
     4b8:	60 8b       	std	Z+16, r22	; 0x10
     4ba:	71 8b       	std	Z+17, r23	; 0x11
     4bc:	82 8b       	std	Z+18, r24	; 0x12
     4be:	93 8b       	std	Z+19, r25	; 0x13
     4c0:	2e df       	rcall	.-420    	; 0x31e <I2C_Read_Ack>
     4c2:	c8 2f       	mov	r28, r24
     4c4:	d0 e0       	ldi	r29, 0x00	; 0
     4c6:	dc 2f       	mov	r29, r28
     4c8:	cc 27       	eor	r28, r28
     4ca:	33 df       	rcall	.-410    	; 0x332 <I2C_Read_Nack>
     4cc:	be 01       	movw	r22, r28
     4ce:	68 2b       	or	r22, r24
     4d0:	07 2e       	mov	r0, r23
     4d2:	00 0c       	add	r0, r0
     4d4:	88 0b       	sbc	r24, r24
     4d6:	99 0b       	sbc	r25, r25
     4d8:	4e d4       	rcall	.+2204   	; 0xd76 <__floatsisf>
     4da:	f8 01       	movw	r30, r16
     4dc:	64 8b       	std	Z+20, r22	; 0x14
     4de:	75 8b       	std	Z+21, r23	; 0x15
     4e0:	86 8b       	std	Z+22, r24	; 0x16
     4e2:	97 8b       	std	Z+23, r25	; 0x17
     4e4:	de de       	rcall	.-580    	; 0x2a2 <I2C_Stop>
     4e6:	c8 01       	movw	r24, r16
     4e8:	df 91       	pop	r29
     4ea:	cf 91       	pop	r28
     4ec:	1f 91       	pop	r17
     4ee:	0f 91       	pop	r16
     4f0:	08 95       	ret

000004f2 <Lcd_CmdWrite>:
     4f2:	98 2f       	mov	r25, r24
     4f4:	90 7f       	andi	r25, 0xF0	; 240
     4f6:	92 b9       	out	0x02, r25	; 2
     4f8:	92 b1       	in	r25, 0x02	; 2
     4fa:	9e 7f       	andi	r25, 0xFE	; 254
     4fc:	92 b9       	out	0x02, r25	; 2
     4fe:	92 b1       	in	r25, 0x02	; 2
     500:	9d 7f       	andi	r25, 0xFD	; 253
     502:	92 b9       	out	0x02, r25	; 2
     504:	92 b1       	in	r25, 0x02	; 2
     506:	94 60       	ori	r25, 0x04	; 4
     508:	92 b9       	out	0x02, r25	; 2
     50a:	ef e3       	ldi	r30, 0x3F	; 63
     50c:	fc e9       	ldi	r31, 0x9C	; 156
     50e:	31 97       	sbiw	r30, 0x01	; 1
     510:	f1 f7       	brne	.-4      	; 0x50e <Lcd_CmdWrite+0x1c>
     512:	00 c0       	rjmp	.+0      	; 0x514 <Lcd_CmdWrite+0x22>
     514:	00 00       	nop
     516:	92 b1       	in	r25, 0x02	; 2
     518:	9b 7f       	andi	r25, 0xFB	; 251
     51a:	92 b9       	out	0x02, r25	; 2
     51c:	ef e3       	ldi	r30, 0x3F	; 63
     51e:	fc e9       	ldi	r31, 0x9C	; 156
     520:	31 97       	sbiw	r30, 0x01	; 1
     522:	f1 f7       	brne	.-4      	; 0x520 <Lcd_CmdWrite+0x2e>
     524:	00 c0       	rjmp	.+0      	; 0x526 <Lcd_CmdWrite+0x34>
     526:	00 00       	nop
     528:	f0 e1       	ldi	r31, 0x10	; 16
     52a:	8f 9f       	mul	r24, r31
     52c:	c0 01       	movw	r24, r0
     52e:	11 24       	eor	r1, r1
     530:	82 b9       	out	0x02, r24	; 2
     532:	82 b1       	in	r24, 0x02	; 2
     534:	8e 7f       	andi	r24, 0xFE	; 254
     536:	82 b9       	out	0x02, r24	; 2
     538:	82 b1       	in	r24, 0x02	; 2
     53a:	8d 7f       	andi	r24, 0xFD	; 253
     53c:	82 b9       	out	0x02, r24	; 2
     53e:	82 b1       	in	r24, 0x02	; 2
     540:	84 60       	ori	r24, 0x04	; 4
     542:	82 b9       	out	0x02, r24	; 2
     544:	8f e3       	ldi	r24, 0x3F	; 63
     546:	9c e9       	ldi	r25, 0x9C	; 156
     548:	01 97       	sbiw	r24, 0x01	; 1
     54a:	f1 f7       	brne	.-4      	; 0x548 <Lcd_CmdWrite+0x56>
     54c:	00 c0       	rjmp	.+0      	; 0x54e <Lcd_CmdWrite+0x5c>
     54e:	00 00       	nop
     550:	82 b1       	in	r24, 0x02	; 2
     552:	8b 7f       	andi	r24, 0xFB	; 251
     554:	82 b9       	out	0x02, r24	; 2
     556:	ef e3       	ldi	r30, 0x3F	; 63
     558:	fc e9       	ldi	r31, 0x9C	; 156
     55a:	31 97       	sbiw	r30, 0x01	; 1
     55c:	f1 f7       	brne	.-4      	; 0x55a <Lcd_CmdWrite+0x68>
     55e:	00 c0       	rjmp	.+0      	; 0x560 <Lcd_CmdWrite+0x6e>
     560:	00 00       	nop
     562:	08 95       	ret

00000564 <Lcd_init>:
     564:	8f ef       	ldi	r24, 0xFF	; 255
     566:	81 b9       	out	0x01, r24	; 1
     568:	82 e0       	ldi	r24, 0x02	; 2
     56a:	c3 df       	rcall	.-122    	; 0x4f2 <Lcd_CmdWrite>
     56c:	88 e2       	ldi	r24, 0x28	; 40
     56e:	c1 df       	rcall	.-126    	; 0x4f2 <Lcd_CmdWrite>
     570:	8e e0       	ldi	r24, 0x0E	; 14
     572:	bf df       	rcall	.-130    	; 0x4f2 <Lcd_CmdWrite>
     574:	81 e0       	ldi	r24, 0x01	; 1
     576:	bd df       	rcall	.-134    	; 0x4f2 <Lcd_CmdWrite>
     578:	80 e8       	ldi	r24, 0x80	; 128
     57a:	bb cf       	rjmp	.-138    	; 0x4f2 <Lcd_CmdWrite>
     57c:	08 95       	ret

0000057e <Lcd_DataWrite>:
     57e:	98 2f       	mov	r25, r24
     580:	90 7f       	andi	r25, 0xF0	; 240
     582:	92 b9       	out	0x02, r25	; 2
     584:	92 b1       	in	r25, 0x02	; 2
     586:	91 60       	ori	r25, 0x01	; 1
     588:	92 b9       	out	0x02, r25	; 2
     58a:	92 b1       	in	r25, 0x02	; 2
     58c:	9d 7f       	andi	r25, 0xFD	; 253
     58e:	92 b9       	out	0x02, r25	; 2
     590:	92 b1       	in	r25, 0x02	; 2
     592:	94 60       	ori	r25, 0x04	; 4
     594:	92 b9       	out	0x02, r25	; 2
     596:	ef e3       	ldi	r30, 0x3F	; 63
     598:	fc e9       	ldi	r31, 0x9C	; 156
     59a:	31 97       	sbiw	r30, 0x01	; 1
     59c:	f1 f7       	brne	.-4      	; 0x59a <Lcd_DataWrite+0x1c>
     59e:	00 c0       	rjmp	.+0      	; 0x5a0 <Lcd_DataWrite+0x22>
     5a0:	00 00       	nop
     5a2:	92 b1       	in	r25, 0x02	; 2
     5a4:	9b 7f       	andi	r25, 0xFB	; 251
     5a6:	92 b9       	out	0x02, r25	; 2
     5a8:	ef e3       	ldi	r30, 0x3F	; 63
     5aa:	fc e9       	ldi	r31, 0x9C	; 156
     5ac:	31 97       	sbiw	r30, 0x01	; 1
     5ae:	f1 f7       	brne	.-4      	; 0x5ac <Lcd_DataWrite+0x2e>
     5b0:	00 c0       	rjmp	.+0      	; 0x5b2 <Lcd_DataWrite+0x34>
     5b2:	00 00       	nop
     5b4:	f0 e1       	ldi	r31, 0x10	; 16
     5b6:	8f 9f       	mul	r24, r31
     5b8:	c0 01       	movw	r24, r0
     5ba:	11 24       	eor	r1, r1
     5bc:	82 b9       	out	0x02, r24	; 2
     5be:	82 b1       	in	r24, 0x02	; 2
     5c0:	81 60       	ori	r24, 0x01	; 1
     5c2:	82 b9       	out	0x02, r24	; 2
     5c4:	82 b1       	in	r24, 0x02	; 2
     5c6:	8d 7f       	andi	r24, 0xFD	; 253
     5c8:	82 b9       	out	0x02, r24	; 2
     5ca:	82 b1       	in	r24, 0x02	; 2
     5cc:	84 60       	ori	r24, 0x04	; 4
     5ce:	82 b9       	out	0x02, r24	; 2
     5d0:	8f e3       	ldi	r24, 0x3F	; 63
     5d2:	9c e9       	ldi	r25, 0x9C	; 156
     5d4:	01 97       	sbiw	r24, 0x01	; 1
     5d6:	f1 f7       	brne	.-4      	; 0x5d4 <Lcd_DataWrite+0x56>
     5d8:	00 c0       	rjmp	.+0      	; 0x5da <Lcd_DataWrite+0x5c>
     5da:	00 00       	nop
     5dc:	82 b1       	in	r24, 0x02	; 2
     5de:	8b 7f       	andi	r24, 0xFB	; 251
     5e0:	82 b9       	out	0x02, r24	; 2
     5e2:	ef e3       	ldi	r30, 0x3F	; 63
     5e4:	fc e9       	ldi	r31, 0x9C	; 156
     5e6:	31 97       	sbiw	r30, 0x01	; 1
     5e8:	f1 f7       	brne	.-4      	; 0x5e6 <Lcd_DataWrite+0x68>
     5ea:	00 c0       	rjmp	.+0      	; 0x5ec <Lcd_DataWrite+0x6e>
     5ec:	00 00       	nop
     5ee:	08 95       	ret

000005f0 <SendLCD>:
     5f0:	0f 93       	push	r16
     5f2:	1f 93       	push	r17
     5f4:	cf 93       	push	r28
     5f6:	df 93       	push	r29
     5f8:	8c 01       	movw	r16, r24
     5fa:	c0 e0       	ldi	r28, 0x00	; 0
     5fc:	d0 e0       	ldi	r29, 0x00	; 0
     5fe:	02 c0       	rjmp	.+4      	; 0x604 <SendLCD+0x14>
     600:	be df       	rcall	.-132    	; 0x57e <Lcd_DataWrite>
     602:	21 96       	adiw	r28, 0x01	; 1
     604:	f8 01       	movw	r30, r16
     606:	ec 0f       	add	r30, r28
     608:	fd 1f       	adc	r31, r29
     60a:	80 81       	ld	r24, Z
     60c:	81 11       	cpse	r24, r1
     60e:	f8 cf       	rjmp	.-16     	; 0x600 <SendLCD+0x10>
     610:	df 91       	pop	r29
     612:	cf 91       	pop	r28
     614:	1f 91       	pop	r17
     616:	0f 91       	pop	r16
     618:	08 95       	ret

0000061a <SendOut>:
     61a:	0f 93       	push	r16
     61c:	1f 93       	push	r17
     61e:	cf 93       	push	r28
     620:	df 93       	push	r29
     622:	eb 01       	movw	r28, r22
     624:	70 93 35 02 	sts	0x0235, r23	; 0x800235 <defRefangle+0x1>
     628:	60 93 34 02 	sts	0x0234, r22	; 0x800234 <defRefangle>
     62c:	9c 01       	movw	r18, r24
     62e:	26 1b       	sub	r18, r22
     630:	37 0b       	sbc	r19, r23
     632:	2a f0       	brmi	.+10     	; 0x63e <SendOut+0x24>
     634:	30 93 39 02 	sts	0x0239, r19	; 0x800239 <realAngle+0x1>
     638:	20 93 38 02 	sts	0x0238, r18	; 0x800238 <realAngle>
     63c:	06 c0       	rjmp	.+12     	; 0x64a <SendOut+0x30>
     63e:	86 1b       	sub	r24, r22
     640:	97 0b       	sbc	r25, r23
     642:	90 93 39 02 	sts	0x0239, r25	; 0x800239 <realAngle+0x1>
     646:	80 93 38 02 	sts	0x0238, r24	; 0x800238 <realAngle>
     64a:	60 91 38 02 	lds	r22, 0x0238	; 0x800238 <realAngle>
     64e:	70 91 39 02 	lds	r23, 0x0239	; 0x800239 <realAngle+0x1>
     652:	70 93 37 02 	sts	0x0237, r23	; 0x800237 <defAngle+0x1>
     656:	60 93 36 02 	sts	0x0236, r22	; 0x800236 <defAngle>
     65a:	07 2e       	mov	r0, r23
     65c:	00 0c       	add	r0, r0
     65e:	88 0b       	sbc	r24, r24
     660:	99 0b       	sbc	r25, r25
     662:	89 d3       	rcall	.+1810   	; 0xd76 <__floatsisf>
     664:	02 e5       	ldi	r16, 0x52	; 82
     666:	12 e0       	ldi	r17, 0x02	; 2
     668:	22 e0       	ldi	r18, 0x02	; 2
     66a:	43 e0       	ldi	r20, 0x03	; 3
     66c:	f9 d4       	rcall	.+2546   	; 0x1060 <dtostrf>
     66e:	c8 01       	movw	r24, r16
     670:	9f 93       	push	r25
     672:	0f 93       	push	r16
     674:	82 e0       	ldi	r24, 0x02	; 2
     676:	92 e0       	ldi	r25, 0x02	; 2
     678:	9f 93       	push	r25
     67a:	8f 93       	push	r24
     67c:	8e e5       	ldi	r24, 0x5E	; 94
     67e:	92 e0       	ldi	r25, 0x02	; 2
     680:	9f 93       	push	r25
     682:	8f 93       	push	r24
     684:	0c d5       	rcall	.+2584   	; 0x109e <sprintf>
     686:	be 01       	movw	r22, r28
     688:	dd 0f       	add	r29, r29
     68a:	88 0b       	sbc	r24, r24
     68c:	99 0b       	sbc	r25, r25
     68e:	73 d3       	rcall	.+1766   	; 0xd76 <__floatsisf>
     690:	02 e7       	ldi	r16, 0x72	; 114
     692:	12 e0       	ldi	r17, 0x02	; 2
     694:	22 e0       	ldi	r18, 0x02	; 2
     696:	43 e0       	ldi	r20, 0x03	; 3
     698:	e3 d4       	rcall	.+2502   	; 0x1060 <dtostrf>
     69a:	c8 01       	movw	r24, r16
     69c:	9f 93       	push	r25
     69e:	0f 93       	push	r16
     6a0:	8d e0       	ldi	r24, 0x0D	; 13
     6a2:	92 e0       	ldi	r25, 0x02	; 2
     6a4:	9f 93       	push	r25
     6a6:	8f 93       	push	r24
     6a8:	82 e8       	ldi	r24, 0x82	; 130
     6aa:	92 e0       	ldi	r25, 0x02	; 2
     6ac:	9f 93       	push	r25
     6ae:	8f 93       	push	r24
     6b0:	f6 d4       	rcall	.+2540   	; 0x109e <sprintf>
     6b2:	8e e5       	ldi	r24, 0x5E	; 94
     6b4:	92 e0       	ldi	r25, 0x02	; 2
     6b6:	5a de       	rcall	.-844    	; 0x36c <USART_SendString>
     6b8:	88 e1       	ldi	r24, 0x18	; 24
     6ba:	92 e0       	ldi	r25, 0x02	; 2
     6bc:	57 de       	rcall	.-850    	; 0x36c <USART_SendString>
     6be:	82 e8       	ldi	r24, 0x82	; 130
     6c0:	92 e0       	ldi	r25, 0x02	; 2
     6c2:	54 de       	rcall	.-856    	; 0x36c <USART_SendString>
     6c4:	8a e1       	ldi	r24, 0x1A	; 26
     6c6:	92 e0       	ldi	r25, 0x02	; 2
     6c8:	51 de       	rcall	.-862    	; 0x36c <USART_SendString>
     6ca:	8d b7       	in	r24, 0x3d	; 61
     6cc:	9e b7       	in	r25, 0x3e	; 62
     6ce:	0c 96       	adiw	r24, 0x0c	; 12
     6d0:	0f b6       	in	r0, 0x3f	; 63
     6d2:	f8 94       	cli
     6d4:	9e bf       	out	0x3e, r25	; 62
     6d6:	0f be       	out	0x3f, r0	; 63
     6d8:	8d bf       	out	0x3d, r24	; 61
     6da:	df 91       	pop	r29
     6dc:	cf 91       	pop	r28
     6de:	1f 91       	pop	r17
     6e0:	0f 91       	pop	r16
     6e2:	08 95       	ret

000006e4 <LCDDisplay>:
     6e4:	8f e0       	ldi	r24, 0x0F	; 15
     6e6:	05 df       	rcall	.-502    	; 0x4f2 <Lcd_CmdWrite>
     6e8:	80 91 00 02 	lds	r24, 0x0200	; 0x800200 <__DATA_REGION_ORIGIN__>
     6ec:	90 91 01 02 	lds	r25, 0x0201	; 0x800201 <__DATA_REGION_ORIGIN__+0x1>
     6f0:	01 97       	sbiw	r24, 0x01	; 1
     6f2:	79 f4       	brne	.+30     	; 0x712 <LCDDisplay+0x2e>
     6f4:	81 e0       	ldi	r24, 0x01	; 1
     6f6:	fd de       	rcall	.-518    	; 0x4f2 <Lcd_CmdWrite>
     6f8:	82 e8       	ldi	r24, 0x82	; 130
     6fa:	92 e0       	ldi	r25, 0x02	; 2
     6fc:	79 df       	rcall	.-270    	; 0x5f0 <SendLCD>
     6fe:	80 ec       	ldi	r24, 0xC0	; 192
     700:	f8 de       	rcall	.-528    	; 0x4f2 <Lcd_CmdWrite>
     702:	8e e5       	ldi	r24, 0x5E	; 94
     704:	92 e0       	ldi	r25, 0x02	; 2
     706:	74 df       	rcall	.-280    	; 0x5f0 <SendLCD>
     708:	10 92 01 02 	sts	0x0201, r1	; 0x800201 <__DATA_REGION_ORIGIN__+0x1>
     70c:	10 92 00 02 	sts	0x0200, r1	; 0x800200 <__DATA_REGION_ORIGIN__>
     710:	56 c0       	rjmp	.+172    	; 0x7be <LCDDisplay+0xda>
     712:	20 91 7c 02 	lds	r18, 0x027C	; 0x80027c <prvAngle>
     716:	30 91 7d 02 	lds	r19, 0x027D	; 0x80027d <prvAngle+0x1>
     71a:	80 91 36 02 	lds	r24, 0x0236	; 0x800236 <defAngle>
     71e:	90 91 37 02 	lds	r25, 0x0237	; 0x800237 <defAngle+0x1>
     722:	28 17       	cp	r18, r24
     724:	39 07       	cpc	r19, r25
     726:	81 f0       	breq	.+32     	; 0x748 <LCDDisplay+0x64>
     728:	20 91 5c 02 	lds	r18, 0x025C	; 0x80025c <prvRefAngle>
     72c:	30 91 5d 02 	lds	r19, 0x025D	; 0x80025d <prvRefAngle+0x1>
     730:	80 91 34 02 	lds	r24, 0x0234	; 0x800234 <defRefangle>
     734:	90 91 35 02 	lds	r25, 0x0235	; 0x800235 <defRefangle+0x1>
     738:	28 17       	cp	r18, r24
     73a:	39 07       	cpc	r19, r25
     73c:	29 f4       	brne	.+10     	; 0x748 <LCDDisplay+0x64>
     73e:	80 ec       	ldi	r24, 0xC0	; 192
     740:	d8 de       	rcall	.-592    	; 0x4f2 <Lcd_CmdWrite>
     742:	8e e5       	ldi	r24, 0x5E	; 94
     744:	92 e0       	ldi	r25, 0x02	; 2
     746:	54 df       	rcall	.-344    	; 0x5f0 <SendLCD>
     748:	20 91 7c 02 	lds	r18, 0x027C	; 0x80027c <prvAngle>
     74c:	30 91 7d 02 	lds	r19, 0x027D	; 0x80027d <prvAngle+0x1>
     750:	80 91 36 02 	lds	r24, 0x0236	; 0x800236 <defAngle>
     754:	90 91 37 02 	lds	r25, 0x0237	; 0x800237 <defAngle+0x1>
     758:	28 17       	cp	r18, r24
     75a:	39 07       	cpc	r19, r25
     75c:	81 f4       	brne	.+32     	; 0x77e <LCDDisplay+0x9a>
     75e:	20 91 5c 02 	lds	r18, 0x025C	; 0x80025c <prvRefAngle>
     762:	30 91 5d 02 	lds	r19, 0x025D	; 0x80025d <prvRefAngle+0x1>
     766:	80 91 34 02 	lds	r24, 0x0234	; 0x800234 <defRefangle>
     76a:	90 91 35 02 	lds	r25, 0x0235	; 0x800235 <defRefangle+0x1>
     76e:	28 17       	cp	r18, r24
     770:	39 07       	cpc	r19, r25
     772:	29 f0       	breq	.+10     	; 0x77e <LCDDisplay+0x9a>
     774:	81 e0       	ldi	r24, 0x01	; 1
     776:	bd de       	rcall	.-646    	; 0x4f2 <Lcd_CmdWrite>
     778:	82 e8       	ldi	r24, 0x82	; 130
     77a:	92 e0       	ldi	r25, 0x02	; 2
     77c:	39 df       	rcall	.-398    	; 0x5f0 <SendLCD>
     77e:	20 91 7c 02 	lds	r18, 0x027C	; 0x80027c <prvAngle>
     782:	30 91 7d 02 	lds	r19, 0x027D	; 0x80027d <prvAngle+0x1>
     786:	80 91 36 02 	lds	r24, 0x0236	; 0x800236 <defAngle>
     78a:	90 91 37 02 	lds	r25, 0x0237	; 0x800237 <defAngle+0x1>
     78e:	28 17       	cp	r18, r24
     790:	39 07       	cpc	r19, r25
     792:	a9 f0       	breq	.+42     	; 0x7be <LCDDisplay+0xda>
     794:	20 91 5c 02 	lds	r18, 0x025C	; 0x80025c <prvRefAngle>
     798:	30 91 5d 02 	lds	r19, 0x025D	; 0x80025d <prvRefAngle+0x1>
     79c:	80 91 34 02 	lds	r24, 0x0234	; 0x800234 <defRefangle>
     7a0:	90 91 35 02 	lds	r25, 0x0235	; 0x800235 <defRefangle+0x1>
     7a4:	28 17       	cp	r18, r24
     7a6:	39 07       	cpc	r19, r25
     7a8:	51 f0       	breq	.+20     	; 0x7be <LCDDisplay+0xda>
     7aa:	81 e0       	ldi	r24, 0x01	; 1
     7ac:	a2 de       	rcall	.-700    	; 0x4f2 <Lcd_CmdWrite>
     7ae:	82 e8       	ldi	r24, 0x82	; 130
     7b0:	92 e0       	ldi	r25, 0x02	; 2
     7b2:	1e df       	rcall	.-452    	; 0x5f0 <SendLCD>
     7b4:	80 ec       	ldi	r24, 0xC0	; 192
     7b6:	9d de       	rcall	.-710    	; 0x4f2 <Lcd_CmdWrite>
     7b8:	8e e5       	ldi	r24, 0x5E	; 94
     7ba:	92 e0       	ldi	r25, 0x02	; 2
     7bc:	19 df       	rcall	.-462    	; 0x5f0 <SendLCD>
     7be:	8c e0       	ldi	r24, 0x0C	; 12
     7c0:	98 de       	rcall	.-720    	; 0x4f2 <Lcd_CmdWrite>
     7c2:	80 91 36 02 	lds	r24, 0x0236	; 0x800236 <defAngle>
     7c6:	90 91 37 02 	lds	r25, 0x0237	; 0x800237 <defAngle+0x1>
     7ca:	90 93 7d 02 	sts	0x027D, r25	; 0x80027d <prvAngle+0x1>
     7ce:	80 93 7c 02 	sts	0x027C, r24	; 0x80027c <prvAngle>
     7d2:	80 91 34 02 	lds	r24, 0x0234	; 0x800234 <defRefangle>
     7d6:	90 91 35 02 	lds	r25, 0x0235	; 0x800235 <defRefangle+0x1>
     7da:	90 93 5d 02 	sts	0x025D, r25	; 0x80025d <prvRefAngle+0x1>
     7de:	80 93 5c 02 	sts	0x025C, r24	; 0x80025c <prvRefAngle>
     7e2:	08 95       	ret

000007e4 <enableTimerInterrupt1>:
     7e4:	ef e6       	ldi	r30, 0x6F	; 111
     7e6:	f0 e0       	ldi	r31, 0x00	; 0
     7e8:	80 81       	ld	r24, Z
     7ea:	82 60       	ori	r24, 0x02	; 2
     7ec:	80 83       	st	Z, r24
     7ee:	08 95       	ret

000007f0 <initTimerInterrupt1>:
}

void initTimerInterrupt1(void)
{
	TCNT1 = 0x00;		// Init counter to 0
     7f0:	10 92 85 00 	sts	0x0085, r1	; 0x800085 <__TEXT_REGION_LENGTH__+0x7c0085>
     7f4:	10 92 84 00 	sts	0x0084, r1	; 0x800084 <__TEXT_REGION_LENGTH__+0x7c0084>
	TCCR1B |= ((1<<WGM12)|(1<<CS12)|(1<<CS10)); //Set prescaler 0 to 1
     7f8:	e1 e8       	ldi	r30, 0x81	; 129
     7fa:	f0 e0       	ldi	r31, 0x00	; 0
     7fc:	80 81       	ld	r24, Z
     7fe:	8d 60       	ori	r24, 0x0D	; 13
     800:	80 83       	st	Z, r24
	OCR1A = 46875 - 1;
     802:	8a e1       	ldi	r24, 0x1A	; 26
     804:	97 eb       	ldi	r25, 0xB7	; 183
     806:	90 93 89 00 	sts	0x0089, r25	; 0x800089 <__TEXT_REGION_LENGTH__+0x7c0089>
     80a:	80 93 88 00 	sts	0x0088, r24	; 0x800088 <__TEXT_REGION_LENGTH__+0x7c0088>
	enableTimerInterrupt1();
     80e:	ea cf       	rjmp	.-44     	; 0x7e4 <enableTimerInterrupt1>
     810:	08 95       	ret

00000812 <intInteruptPort>:
}

void intInteruptPort(void){
	PORTE &= ~(1<<INT4);//set PortE4(pin 2) as input
     812:	8e b1       	in	r24, 0x0e	; 14
     814:	8f 7e       	andi	r24, 0xEF	; 239
     816:	8e b9       	out	0x0e, r24	; 14
	EIMSK |= (1<<INT4);//Enable INT4 interrupt
     818:	8d b3       	in	r24, 0x1d	; 29
     81a:	80 61       	ori	r24, 0x10	; 16
     81c:	8d bb       	out	0x1d, r24	; 29
	EICRB |= (1<<ISC00);//Enable any edge as INT request
     81e:	ea e6       	ldi	r30, 0x6A	; 106
     820:	f0 e0       	ldi	r31, 0x00	; 0
     822:	80 81       	ld	r24, Z
     824:	81 60       	ori	r24, 0x01	; 1
     826:	80 83       	st	Z, r24
     828:	08 95       	ret

0000082a <main>:
float Xa = 0,Ya = 0,Za = 0;
float Xg=0,Yg=0;
int ref_angle= 0;
int timeCounter = 0;

int main(){
     82a:	cf 93       	push	r28
     82c:	df 93       	push	r29
     82e:	00 d0       	rcall	.+0      	; 0x830 <main+0x6>
     830:	1f 92       	push	r1
     832:	cd b7       	in	r28, 0x3d	; 61
     834:	de b7       	in	r29, 0x3e	; 62
	DDRB |= 0xFF;
     836:	84 b1       	in	r24, 0x04	; 4
     838:	8f ef       	ldi	r24, 0xFF	; 255
     83a:	84 b9       	out	0x04, r24	; 4
	DDRE &= 0x00;//input
     83c:	8d b1       	in	r24, 0x0d	; 13
     83e:	1d b8       	out	0x0d, r1	; 13
	//system initializations
	I2C_Init();
     840:	06 dd       	rcall	.-1524   	; 0x24e <I2C_Init>
	MPU6050_Init();
     842:	a9 dd       	rcall	.-1198   	; 0x396 <MPU6050_Init>
	initUSART();
     844:	80 dd       	rcall	.-1280   	; 0x346 <initUSART>
	Lcd_init();
     846:	8e de       	rcall	.-740    	; 0x564 <Lcd_init>
     848:	d3 df       	rcall	.-90     	; 0x7f0 <initTimerInterrupt1>
	//Timer interrupt initializations 
	initTimerInterrupt1();
     84a:	e3 df       	rcall	.-58     	; 0x812 <intInteruptPort>
     84c:	78 94       	sei
	//Extranal interrupt initializations
	intInteruptPort();
     84e:	85 b1       	in	r24, 0x05	; 5
	//Enabel Global intrrupt	
	sei();
     850:	9f ef       	ldi	r25, 0xFF	; 255
	PORTB |= 0xFF;
     852:	95 b9       	out	0x05, r25	; 5
     854:	d4 dd       	rcall	.-1112   	; 0x3fe <Read_RawValue>
     856:	9a 83       	std	Y+2, r25	; 0x02
	while(1){
		
		//get data from Sensor using AngleRowData lib
		float* dataArray = Read_RawValue();
     858:	89 83       	std	Y+1, r24	; 0x01
     85a:	dc 01       	movw	r26, r24
     85c:	6d 91       	ld	r22, X+
     85e:	7d 91       	ld	r23, X+
		//read row data
		Xa = dataArray[0]/16384.0;
     860:	8d 91       	ld	r24, X+
     862:	9c 91       	ld	r25, X
     864:	20 e0       	ldi	r18, 0x00	; 0
     866:	30 e0       	ldi	r19, 0x00	; 0
     868:	40 e8       	ldi	r20, 0x80	; 128
     86a:	58 e3       	ldi	r21, 0x38	; 56
     86c:	3c d3       	rcall	.+1656   	; 0xee6 <__mulsf3>
     86e:	2b 01       	movw	r4, r22
     870:	3c 01       	movw	r6, r24
     872:	60 93 30 02 	sts	0x0230, r22	; 0x800230 <Xa>
     876:	70 93 31 02 	sts	0x0231, r23	; 0x800231 <Xa+0x1>
     87a:	80 93 32 02 	sts	0x0232, r24	; 0x800232 <Xa+0x2>
     87e:	90 93 33 02 	sts	0x0233, r25	; 0x800233 <Xa+0x3>
     882:	e9 81       	ldd	r30, Y+1	; 0x01
     884:	fa 81       	ldd	r31, Y+2	; 0x02
     886:	64 81       	ldd	r22, Z+4	; 0x04
		Ya = dataArray[1]/16384.0;
     888:	75 81       	ldd	r23, Z+5	; 0x05
     88a:	86 81       	ldd	r24, Z+6	; 0x06
     88c:	97 81       	ldd	r25, Z+7	; 0x07
     88e:	20 e0       	ldi	r18, 0x00	; 0
     890:	30 e0       	ldi	r19, 0x00	; 0
     892:	40 e8       	ldi	r20, 0x80	; 128
     894:	58 e3       	ldi	r21, 0x38	; 56
     896:	27 d3       	rcall	.+1614   	; 0xee6 <__mulsf3>
     898:	4b 01       	movw	r8, r22
     89a:	5c 01       	movw	r10, r24
     89c:	60 93 2c 02 	sts	0x022C, r22	; 0x80022c <Ya>
     8a0:	70 93 2d 02 	sts	0x022D, r23	; 0x80022d <Ya+0x1>
     8a4:	80 93 2e 02 	sts	0x022E, r24	; 0x80022e <Ya+0x2>
     8a8:	90 93 2f 02 	sts	0x022F, r25	; 0x80022f <Ya+0x3>
     8ac:	a9 81       	ldd	r26, Y+1	; 0x01
     8ae:	ba 81       	ldd	r27, Y+2	; 0x02
     8b0:	18 96       	adiw	r26, 0x08	; 8
		Za = dataArray[2]/16384.0;
     8b2:	6d 91       	ld	r22, X+
     8b4:	7d 91       	ld	r23, X+
     8b6:	8d 91       	ld	r24, X+
     8b8:	9c 91       	ld	r25, X
     8ba:	1b 97       	sbiw	r26, 0x0b	; 11
     8bc:	20 e0       	ldi	r18, 0x00	; 0
     8be:	30 e0       	ldi	r19, 0x00	; 0
     8c0:	40 e8       	ldi	r20, 0x80	; 128
     8c2:	58 e3       	ldi	r21, 0x38	; 56
     8c4:	10 d3       	rcall	.+1568   	; 0xee6 <__mulsf3>
     8c6:	6b 01       	movw	r12, r22
     8c8:	7c 01       	movw	r14, r24
     8ca:	60 93 28 02 	sts	0x0228, r22	; 0x800228 <Za>
     8ce:	70 93 29 02 	sts	0x0229, r23	; 0x800229 <Za+0x1>
     8d2:	80 93 2a 02 	sts	0x022A, r24	; 0x80022a <Za+0x2>
     8d6:	90 93 2b 02 	sts	0x022B, r25	; 0x80022b <Za+0x3>
     8da:	e9 81       	ldd	r30, Y+1	; 0x01
     8dc:	fa 81       	ldd	r31, Y+2	; 0x02
     8de:	64 85       	ldd	r22, Z+12	; 0x0c
		Xg = dataArray[3]/16.4;
     8e0:	75 85       	ldd	r23, Z+13	; 0x0d
     8e2:	86 85       	ldd	r24, Z+14	; 0x0e
     8e4:	97 85       	ldd	r25, Z+15	; 0x0f
     8e6:	23 e3       	ldi	r18, 0x33	; 51
     8e8:	33 e3       	ldi	r19, 0x33	; 51
     8ea:	43 e8       	ldi	r20, 0x83	; 131
     8ec:	51 e4       	ldi	r21, 0x41	; 65
     8ee:	a8 d1       	rcall	.+848    	; 0xc40 <__divsf3>
     8f0:	60 93 24 02 	sts	0x0224, r22	; 0x800224 <Xg>
     8f4:	70 93 25 02 	sts	0x0225, r23	; 0x800225 <Xg+0x1>
     8f8:	80 93 26 02 	sts	0x0226, r24	; 0x800226 <Xg+0x2>
     8fc:	90 93 27 02 	sts	0x0227, r25	; 0x800227 <Xg+0x3>
     900:	a9 81       	ldd	r26, Y+1	; 0x01
     902:	ba 81       	ldd	r27, Y+2	; 0x02
     904:	50 96       	adiw	r26, 0x10	; 16
		Yg = dataArray[4]/16.4;
     906:	6d 91       	ld	r22, X+
     908:	7d 91       	ld	r23, X+
     90a:	8d 91       	ld	r24, X+
     90c:	9c 91       	ld	r25, X
     90e:	53 97       	sbiw	r26, 0x13	; 19
     910:	23 e3       	ldi	r18, 0x33	; 51
     912:	33 e3       	ldi	r19, 0x33	; 51
     914:	43 e8       	ldi	r20, 0x83	; 131
     916:	51 e4       	ldi	r21, 0x41	; 65
     918:	93 d1       	rcall	.+806    	; 0xc40 <__divsf3>
     91a:	69 83       	std	Y+1, r22	; 0x01
     91c:	7a 83       	std	Y+2, r23	; 0x02
     91e:	8b 83       	std	Y+3, r24	; 0x03
     920:	9c 83       	std	Y+4, r25	; 0x04
     922:	60 93 20 02 	sts	0x0220, r22	; 0x800220 <Yg>
     926:	70 93 21 02 	sts	0x0221, r23	; 0x800221 <Yg+0x1>
     92a:	80 93 22 02 	sts	0x0222, r24	; 0x800222 <Yg+0x2>
     92e:	90 93 23 02 	sts	0x0223, r25	; 0x800223 <Yg+0x3>
     932:	a5 01       	movw	r20, r10
     934:	94 01       	movw	r18, r8
		
		//calculate pitch angle
		pitchangle=atan2(Xa,sqrt(Ya*Ya+Za*Za))*240/PI;
     936:	c5 01       	movw	r24, r10
     938:	b4 01       	movw	r22, r8
     93a:	d5 d2       	rcall	.+1450   	; 0xee6 <__mulsf3>
     93c:	4b 01       	movw	r8, r22
     93e:	5c 01       	movw	r10, r24
     940:	a7 01       	movw	r20, r14
     942:	96 01       	movw	r18, r12
     944:	c7 01       	movw	r24, r14
     946:	b6 01       	movw	r22, r12
     948:	ce d2       	rcall	.+1436   	; 0xee6 <__mulsf3>
     94a:	9b 01       	movw	r18, r22
     94c:	ac 01       	movw	r20, r24
     94e:	c5 01       	movw	r24, r10
     950:	b4 01       	movw	r22, r8
     952:	b0 d0       	rcall	.+352    	; 0xab4 <__addsf3>
     954:	2f d3       	rcall	.+1630   	; 0xfb4 <sqrt>
     956:	9b 01       	movw	r18, r22
     958:	ac 01       	movw	r20, r24
     95a:	c3 01       	movw	r24, r6
     95c:	b2 01       	movw	r22, r4
     95e:	1d d1       	rcall	.+570    	; 0xb9a <atan2>
     960:	20 e0       	ldi	r18, 0x00	; 0
     962:	30 e0       	ldi	r19, 0x00	; 0
     964:	40 e7       	ldi	r20, 0x70	; 112
     966:	53 e4       	ldi	r21, 0x43	; 67
     968:	be d2       	rcall	.+1404   	; 0xee6 <__mulsf3>
     96a:	20 ed       	ldi	r18, 0xD0	; 208
     96c:	3f e0       	ldi	r19, 0x0F	; 15
     96e:	49 e4       	ldi	r20, 0x49	; 73
     970:	50 e4       	ldi	r21, 0x40	; 64
     972:	66 d1       	rcall	.+716    	; 0xc40 <__divsf3>
     974:	cd d1       	rcall	.+922    	; 0xd10 <__fixsfsi>
     976:	6b 01       	movw	r12, r22
     978:	7c 01       	movw	r14, r24
     97a:	70 93 7f 02 	sts	0x027F, r23	; 0x80027f <pitchangle+0x1>
     97e:	60 93 7e 02 	sts	0x027E, r22	; 0x80027e <pitchangle>
     982:	2a e0       	ldi	r18, 0x0A	; 10
     984:	37 ed       	ldi	r19, 0xD7	; 215
     986:	43 ea       	ldi	r20, 0xA3	; 163
		
		//Calculate  pitch
		pitch = A*(pitch+Yg*dt)+(1-A)*pitchangle;
     988:	5c e3       	ldi	r21, 0x3C	; 60
     98a:	69 81       	ldd	r22, Y+1	; 0x01
     98c:	7a 81       	ldd	r23, Y+2	; 0x02
     98e:	8b 81       	ldd	r24, Y+3	; 0x03
     990:	9c 81       	ldd	r25, Y+4	; 0x04
     992:	a9 d2       	rcall	.+1362   	; 0xee6 <__mulsf3>
     994:	4b 01       	movw	r8, r22
     996:	5c 01       	movw	r10, r24
     998:	60 91 80 02 	lds	r22, 0x0280	; 0x800280 <pitch>
     99c:	70 91 81 02 	lds	r23, 0x0281	; 0x800281 <pitch+0x1>
     9a0:	07 2e       	mov	r0, r23
     9a2:	00 0c       	add	r0, r0
     9a4:	88 0b       	sbc	r24, r24
     9a6:	99 0b       	sbc	r25, r25
     9a8:	e6 d1       	rcall	.+972    	; 0xd76 <__floatsisf>
     9aa:	a5 01       	movw	r20, r10
     9ac:	94 01       	movw	r18, r8
     9ae:	82 d0       	rcall	.+260    	; 0xab4 <__addsf3>
     9b0:	22 ea       	ldi	r18, 0xA2	; 162
     9b2:	35 e4       	ldi	r19, 0x45	; 69
     9b4:	46 e7       	ldi	r20, 0x76	; 118
     9b6:	5f e3       	ldi	r21, 0x3F	; 63
     9b8:	96 d2       	rcall	.+1324   	; 0xee6 <__mulsf3>
     9ba:	4b 01       	movw	r8, r22
     9bc:	5c 01       	movw	r10, r24
     9be:	b6 01       	movw	r22, r12
     9c0:	dd 0c       	add	r13, r13
     9c2:	88 0b       	sbc	r24, r24
     9c4:	99 0b       	sbc	r25, r25
     9c6:	d7 d1       	rcall	.+942    	; 0xd76 <__floatsisf>
     9c8:	20 ee       	ldi	r18, 0xE0	; 224
     9ca:	35 ea       	ldi	r19, 0xA5	; 165
     9cc:	4b e1       	ldi	r20, 0x1B	; 27
     9ce:	5d e3       	ldi	r21, 0x3D	; 61
     9d0:	8a d2       	rcall	.+1300   	; 0xee6 <__mulsf3>
     9d2:	9b 01       	movw	r18, r22
     9d4:	ac 01       	movw	r20, r24
     9d6:	c5 01       	movw	r24, r10
     9d8:	b4 01       	movw	r22, r8
     9da:	6c d0       	rcall	.+216    	; 0xab4 <__addsf3>
     9dc:	99 d1       	rcall	.+818    	; 0xd10 <__fixsfsi>
     9de:	dc 01       	movw	r26, r24
     9e0:	cb 01       	movw	r24, r22
     9e2:	90 93 81 02 	sts	0x0281, r25	; 0x800281 <pitch+0x1>
     9e6:	80 93 80 02 	sts	0x0280, r24	; 0x800280 <pitch>
     9ea:	60 91 1e 02 	lds	r22, 0x021E	; 0x80021e <ref_angle>
     9ee:	70 91 1f 02 	lds	r23, 0x021F	; 0x80021f <ref_angle+0x1>
		
		//send output
		SendOut(pitch,ref_angle);
     9f2:	13 de       	rcall	.-986    	; 0x61a <SendOut>
     9f4:	80 91 1c 02 	lds	r24, 0x021C	; 0x80021c <__data_end>
     9f8:	90 91 1d 02 	lds	r25, 0x021D	; 0x80021d <__data_end+0x1>
		
		//check sleep
		if(timeCounter >= 10){
     9fc:	0a 97       	sbiw	r24, 0x0a	; 10
     9fe:	0c f4       	brge	.+2      	; 0xa02 <main+0x1d8>
     a00:	29 cf       	rjmp	.-430    	; 0x854 <main+0x2a>
     a02:	88 e0       	ldi	r24, 0x08	; 8
     a04:	76 dd       	rcall	.-1300   	; 0x4f2 <Lcd_CmdWrite>
     a06:	26 cf       	rjmp	.-436    	; 0x854 <main+0x2a>

00000a08 <__vector_17>:
     a08:	1f 92       	push	r1
			Lcd_CmdWrite(0x08);
     a0a:	0f 92       	push	r0
     a0c:	0f b6       	in	r0, 0x3f	; 63
     a0e:	0f 92       	push	r0
     a10:	11 24       	eor	r1, r1
		}
	}
	return 0;
}

ISR(TIMER1_COMPA_vect){
     a12:	0b b6       	in	r0, 0x3b	; 59
     a14:	0f 92       	push	r0
     a16:	2f 93       	push	r18
     a18:	3f 93       	push	r19
     a1a:	4f 93       	push	r20
     a1c:	5f 93       	push	r21
     a1e:	6f 93       	push	r22
     a20:	7f 93       	push	r23
     a22:	8f 93       	push	r24
     a24:	9f 93       	push	r25
     a26:	af 93       	push	r26
     a28:	bf 93       	push	r27
     a2a:	ef 93       	push	r30
     a2c:	ff 93       	push	r31
	if(prvAngle != defAngle){
     a2e:	20 91 7c 02 	lds	r18, 0x027C	; 0x80027c <prvAngle>
     a32:	30 91 7d 02 	lds	r19, 0x027D	; 0x80027d <prvAngle+0x1>
     a36:	80 91 36 02 	lds	r24, 0x0236	; 0x800236 <defAngle>
     a3a:	90 91 37 02 	lds	r25, 0x0237	; 0x800237 <defAngle+0x1>
     a3e:	28 17       	cp	r18, r24
     a40:	39 07       	cpc	r19, r25
     a42:	21 f0       	breq	.+8      	; 0xa4c <__vector_17+0x44>
		timeCounter = 0;
     a44:	10 92 1d 02 	sts	0x021D, r1	; 0x80021d <__data_end+0x1>
     a48:	10 92 1c 02 	sts	0x021C, r1	; 0x80021c <__data_end>
	}
	LCDDisplay();
     a4c:	4b de       	rcall	.-874    	; 0x6e4 <LCDDisplay>
	timeCounter++;
     a4e:	80 91 1c 02 	lds	r24, 0x021C	; 0x80021c <__data_end>
     a52:	90 91 1d 02 	lds	r25, 0x021D	; 0x80021d <__data_end+0x1>
     a56:	01 96       	adiw	r24, 0x01	; 1
     a58:	90 93 1d 02 	sts	0x021D, r25	; 0x80021d <__data_end+0x1>
     a5c:	80 93 1c 02 	sts	0x021C, r24	; 0x80021c <__data_end>
}
     a60:	ff 91       	pop	r31
     a62:	ef 91       	pop	r30
     a64:	bf 91       	pop	r27
     a66:	af 91       	pop	r26
     a68:	9f 91       	pop	r25
     a6a:	8f 91       	pop	r24
     a6c:	7f 91       	pop	r23
     a6e:	6f 91       	pop	r22
     a70:	5f 91       	pop	r21
     a72:	4f 91       	pop	r20
     a74:	3f 91       	pop	r19
     a76:	2f 91       	pop	r18
     a78:	0f 90       	pop	r0
     a7a:	0b be       	out	0x3b, r0	; 59
     a7c:	0f 90       	pop	r0
     a7e:	0f be       	out	0x3f, r0	; 63
     a80:	0f 90       	pop	r0
     a82:	1f 90       	pop	r1
     a84:	18 95       	reti

00000a86 <__vector_5>:

ISR(INT4_vect){
     a86:	1f 92       	push	r1
     a88:	0f 92       	push	r0
     a8a:	0f b6       	in	r0, 0x3f	; 63
     a8c:	0f 92       	push	r0
     a8e:	11 24       	eor	r1, r1
     a90:	8f 93       	push	r24
     a92:	9f 93       	push	r25
	ref_angle = pitch;	
     a94:	80 91 80 02 	lds	r24, 0x0280	; 0x800280 <pitch>
     a98:	90 91 81 02 	lds	r25, 0x0281	; 0x800281 <pitch+0x1>
     a9c:	90 93 1f 02 	sts	0x021F, r25	; 0x80021f <ref_angle+0x1>
     aa0:	80 93 1e 02 	sts	0x021E, r24	; 0x80021e <ref_angle>
}
     aa4:	9f 91       	pop	r25
     aa6:	8f 91       	pop	r24
     aa8:	0f 90       	pop	r0
     aaa:	0f be       	out	0x3f, r0	; 63
     aac:	0f 90       	pop	r0
     aae:	1f 90       	pop	r1
     ab0:	18 95       	reti

00000ab2 <__subsf3>:
     ab2:	50 58       	subi	r21, 0x80	; 128

00000ab4 <__addsf3>:
     ab4:	bb 27       	eor	r27, r27
     ab6:	aa 27       	eor	r26, r26
     ab8:	0e d0       	rcall	.+28     	; 0xad6 <__addsf3x>
     aba:	d4 c1       	rjmp	.+936    	; 0xe64 <__fp_round>
     abc:	c5 d1       	rcall	.+906    	; 0xe48 <__fp_pscA>
     abe:	30 f0       	brcs	.+12     	; 0xacc <__addsf3+0x18>
     ac0:	ca d1       	rcall	.+916    	; 0xe56 <__fp_pscB>
     ac2:	20 f0       	brcs	.+8      	; 0xacc <__addsf3+0x18>
     ac4:	31 f4       	brne	.+12     	; 0xad2 <__addsf3+0x1e>
     ac6:	9f 3f       	cpi	r25, 0xFF	; 255
     ac8:	11 f4       	brne	.+4      	; 0xace <__addsf3+0x1a>
     aca:	1e f4       	brtc	.+6      	; 0xad2 <__addsf3+0x1e>
     acc:	95 c1       	rjmp	.+810    	; 0xdf8 <__fp_nan>
     ace:	0e f4       	brtc	.+2      	; 0xad2 <__addsf3+0x1e>
     ad0:	e0 95       	com	r30
     ad2:	e7 fb       	bst	r30, 7
     ad4:	8b c1       	rjmp	.+790    	; 0xdec <__fp_inf>

00000ad6 <__addsf3x>:
     ad6:	e9 2f       	mov	r30, r25
     ad8:	d6 d1       	rcall	.+940    	; 0xe86 <__fp_split3>
     ada:	80 f3       	brcs	.-32     	; 0xabc <__addsf3+0x8>
     adc:	ba 17       	cp	r27, r26
     ade:	62 07       	cpc	r22, r18
     ae0:	73 07       	cpc	r23, r19
     ae2:	84 07       	cpc	r24, r20
     ae4:	95 07       	cpc	r25, r21
     ae6:	18 f0       	brcs	.+6      	; 0xaee <__addsf3x+0x18>
     ae8:	71 f4       	brne	.+28     	; 0xb06 <__addsf3x+0x30>
     aea:	9e f5       	brtc	.+102    	; 0xb52 <__addsf3x+0x7c>
     aec:	ee c1       	rjmp	.+988    	; 0xeca <__fp_zero>
     aee:	0e f4       	brtc	.+2      	; 0xaf2 <__addsf3x+0x1c>
     af0:	e0 95       	com	r30
     af2:	0b 2e       	mov	r0, r27
     af4:	ba 2f       	mov	r27, r26
     af6:	a0 2d       	mov	r26, r0
     af8:	0b 01       	movw	r0, r22
     afa:	b9 01       	movw	r22, r18
     afc:	90 01       	movw	r18, r0
     afe:	0c 01       	movw	r0, r24
     b00:	ca 01       	movw	r24, r20
     b02:	a0 01       	movw	r20, r0
     b04:	11 24       	eor	r1, r1
     b06:	ff 27       	eor	r31, r31
     b08:	59 1b       	sub	r21, r25
     b0a:	99 f0       	breq	.+38     	; 0xb32 <__addsf3x+0x5c>
     b0c:	59 3f       	cpi	r21, 0xF9	; 249
     b0e:	50 f4       	brcc	.+20     	; 0xb24 <__addsf3x+0x4e>
     b10:	50 3e       	cpi	r21, 0xE0	; 224
     b12:	68 f1       	brcs	.+90     	; 0xb6e <__addsf3x+0x98>
     b14:	1a 16       	cp	r1, r26
     b16:	f0 40       	sbci	r31, 0x00	; 0
     b18:	a2 2f       	mov	r26, r18
     b1a:	23 2f       	mov	r18, r19
     b1c:	34 2f       	mov	r19, r20
     b1e:	44 27       	eor	r20, r20
     b20:	58 5f       	subi	r21, 0xF8	; 248
     b22:	f3 cf       	rjmp	.-26     	; 0xb0a <__addsf3x+0x34>
     b24:	46 95       	lsr	r20
     b26:	37 95       	ror	r19
     b28:	27 95       	ror	r18
     b2a:	a7 95       	ror	r26
     b2c:	f0 40       	sbci	r31, 0x00	; 0
     b2e:	53 95       	inc	r21
     b30:	c9 f7       	brne	.-14     	; 0xb24 <__addsf3x+0x4e>
     b32:	7e f4       	brtc	.+30     	; 0xb52 <__addsf3x+0x7c>
     b34:	1f 16       	cp	r1, r31
     b36:	ba 0b       	sbc	r27, r26
     b38:	62 0b       	sbc	r22, r18
     b3a:	73 0b       	sbc	r23, r19
     b3c:	84 0b       	sbc	r24, r20
     b3e:	ba f0       	brmi	.+46     	; 0xb6e <__addsf3x+0x98>
     b40:	91 50       	subi	r25, 0x01	; 1
     b42:	a1 f0       	breq	.+40     	; 0xb6c <__addsf3x+0x96>
     b44:	ff 0f       	add	r31, r31
     b46:	bb 1f       	adc	r27, r27
     b48:	66 1f       	adc	r22, r22
     b4a:	77 1f       	adc	r23, r23
     b4c:	88 1f       	adc	r24, r24
     b4e:	c2 f7       	brpl	.-16     	; 0xb40 <__addsf3x+0x6a>
     b50:	0e c0       	rjmp	.+28     	; 0xb6e <__addsf3x+0x98>
     b52:	ba 0f       	add	r27, r26
     b54:	62 1f       	adc	r22, r18
     b56:	73 1f       	adc	r23, r19
     b58:	84 1f       	adc	r24, r20
     b5a:	48 f4       	brcc	.+18     	; 0xb6e <__addsf3x+0x98>
     b5c:	87 95       	ror	r24
     b5e:	77 95       	ror	r23
     b60:	67 95       	ror	r22
     b62:	b7 95       	ror	r27
     b64:	f7 95       	ror	r31
     b66:	9e 3f       	cpi	r25, 0xFE	; 254
     b68:	08 f0       	brcs	.+2      	; 0xb6c <__addsf3x+0x96>
     b6a:	b3 cf       	rjmp	.-154    	; 0xad2 <__addsf3+0x1e>
     b6c:	93 95       	inc	r25
     b6e:	88 0f       	add	r24, r24
     b70:	08 f0       	brcs	.+2      	; 0xb74 <__addsf3x+0x9e>
     b72:	99 27       	eor	r25, r25
     b74:	ee 0f       	add	r30, r30
     b76:	97 95       	ror	r25
     b78:	87 95       	ror	r24
     b7a:	08 95       	ret
     b7c:	65 d1       	rcall	.+714    	; 0xe48 <__fp_pscA>
     b7e:	58 f0       	brcs	.+22     	; 0xb96 <__addsf3x+0xc0>
     b80:	80 e8       	ldi	r24, 0x80	; 128
     b82:	91 e0       	ldi	r25, 0x01	; 1
     b84:	09 f4       	brne	.+2      	; 0xb88 <__addsf3x+0xb2>
     b86:	9e ef       	ldi	r25, 0xFE	; 254
     b88:	66 d1       	rcall	.+716    	; 0xe56 <__fp_pscB>
     b8a:	28 f0       	brcs	.+10     	; 0xb96 <__addsf3x+0xc0>
     b8c:	40 e8       	ldi	r20, 0x80	; 128
     b8e:	51 e0       	ldi	r21, 0x01	; 1
     b90:	59 f4       	brne	.+22     	; 0xba8 <atan2+0xe>
     b92:	5e ef       	ldi	r21, 0xFE	; 254
     b94:	09 c0       	rjmp	.+18     	; 0xba8 <atan2+0xe>
     b96:	30 c1       	rjmp	.+608    	; 0xdf8 <__fp_nan>
     b98:	98 c1       	rjmp	.+816    	; 0xeca <__fp_zero>

00000b9a <atan2>:
     b9a:	e9 2f       	mov	r30, r25
     b9c:	e0 78       	andi	r30, 0x80	; 128
     b9e:	73 d1       	rcall	.+742    	; 0xe86 <__fp_split3>
     ba0:	68 f3       	brcs	.-38     	; 0xb7c <__addsf3x+0xa6>
     ba2:	09 2e       	mov	r0, r25
     ba4:	05 2a       	or	r0, r21
     ba6:	c1 f3       	breq	.-16     	; 0xb98 <__addsf3x+0xc2>
     ba8:	26 17       	cp	r18, r22
     baa:	37 07       	cpc	r19, r23
     bac:	48 07       	cpc	r20, r24
     bae:	59 07       	cpc	r21, r25
     bb0:	38 f0       	brcs	.+14     	; 0xbc0 <atan2+0x26>
     bb2:	0e 2e       	mov	r0, r30
     bb4:	07 f8       	bld	r0, 7
     bb6:	e0 25       	eor	r30, r0
     bb8:	69 f0       	breq	.+26     	; 0xbd4 <atan2+0x3a>
     bba:	e0 25       	eor	r30, r0
     bbc:	e0 64       	ori	r30, 0x40	; 64
     bbe:	0a c0       	rjmp	.+20     	; 0xbd4 <atan2+0x3a>
     bc0:	ef 63       	ori	r30, 0x3F	; 63
     bc2:	07 f8       	bld	r0, 7
     bc4:	00 94       	com	r0
     bc6:	07 fa       	bst	r0, 7
     bc8:	db 01       	movw	r26, r22
     bca:	b9 01       	movw	r22, r18
     bcc:	9d 01       	movw	r18, r26
     bce:	dc 01       	movw	r26, r24
     bd0:	ca 01       	movw	r24, r20
     bd2:	ad 01       	movw	r20, r26
     bd4:	ef 93       	push	r30
     bd6:	43 d0       	rcall	.+134    	; 0xc5e <__divsf3_pse>
     bd8:	45 d1       	rcall	.+650    	; 0xe64 <__fp_round>
     bda:	0a d0       	rcall	.+20     	; 0xbf0 <atan>
     bdc:	5f 91       	pop	r21
     bde:	55 23       	and	r21, r21
     be0:	31 f0       	breq	.+12     	; 0xbee <atan2+0x54>
     be2:	2b ed       	ldi	r18, 0xDB	; 219
     be4:	3f e0       	ldi	r19, 0x0F	; 15
     be6:	49 e4       	ldi	r20, 0x49	; 73
     be8:	50 fd       	sbrc	r21, 0
     bea:	49 ec       	ldi	r20, 0xC9	; 201
     bec:	63 cf       	rjmp	.-314    	; 0xab4 <__addsf3>
     bee:	08 95       	ret

00000bf0 <atan>:
     bf0:	df 93       	push	r29
     bf2:	dd 27       	eor	r29, r29
     bf4:	b9 2f       	mov	r27, r25
     bf6:	bf 77       	andi	r27, 0x7F	; 127
     bf8:	40 e8       	ldi	r20, 0x80	; 128
     bfa:	5f e3       	ldi	r21, 0x3F	; 63
     bfc:	16 16       	cp	r1, r22
     bfe:	17 06       	cpc	r1, r23
     c00:	48 07       	cpc	r20, r24
     c02:	5b 07       	cpc	r21, r27
     c04:	10 f4       	brcc	.+4      	; 0xc0a <atan+0x1a>
     c06:	d9 2f       	mov	r29, r25
     c08:	67 d1       	rcall	.+718    	; 0xed8 <inverse>
     c0a:	9f 93       	push	r25
     c0c:	8f 93       	push	r24
     c0e:	7f 93       	push	r23
     c10:	6f 93       	push	r22
     c12:	0e d2       	rcall	.+1052   	; 0x1030 <square>
     c14:	e4 ee       	ldi	r30, 0xE4	; 228
     c16:	f0 e0       	ldi	r31, 0x00	; 0
     c18:	f2 d0       	rcall	.+484    	; 0xdfe <__fp_powser>
     c1a:	24 d1       	rcall	.+584    	; 0xe64 <__fp_round>
     c1c:	2f 91       	pop	r18
     c1e:	3f 91       	pop	r19
     c20:	4f 91       	pop	r20
     c22:	5f 91       	pop	r21
     c24:	6c d1       	rcall	.+728    	; 0xefe <__mulsf3x>
     c26:	dd 23       	and	r29, r29
     c28:	49 f0       	breq	.+18     	; 0xc3c <atan+0x4c>
     c2a:	90 58       	subi	r25, 0x80	; 128
     c2c:	a2 ea       	ldi	r26, 0xA2	; 162
     c2e:	2a ed       	ldi	r18, 0xDA	; 218
     c30:	3f e0       	ldi	r19, 0x0F	; 15
     c32:	49 ec       	ldi	r20, 0xC9	; 201
     c34:	5f e3       	ldi	r21, 0x3F	; 63
     c36:	d0 78       	andi	r29, 0x80	; 128
     c38:	5d 27       	eor	r21, r29
     c3a:	4d df       	rcall	.-358    	; 0xad6 <__addsf3x>
     c3c:	df 91       	pop	r29
     c3e:	12 c1       	rjmp	.+548    	; 0xe64 <__fp_round>

00000c40 <__divsf3>:
     c40:	0c d0       	rcall	.+24     	; 0xc5a <__divsf3x>
     c42:	10 c1       	rjmp	.+544    	; 0xe64 <__fp_round>
     c44:	08 d1       	rcall	.+528    	; 0xe56 <__fp_pscB>
     c46:	40 f0       	brcs	.+16     	; 0xc58 <__divsf3+0x18>
     c48:	ff d0       	rcall	.+510    	; 0xe48 <__fp_pscA>
     c4a:	30 f0       	brcs	.+12     	; 0xc58 <__divsf3+0x18>
     c4c:	21 f4       	brne	.+8      	; 0xc56 <__divsf3+0x16>
     c4e:	5f 3f       	cpi	r21, 0xFF	; 255
     c50:	19 f0       	breq	.+6      	; 0xc58 <__divsf3+0x18>
     c52:	cc c0       	rjmp	.+408    	; 0xdec <__fp_inf>
     c54:	51 11       	cpse	r21, r1
     c56:	3a c1       	rjmp	.+628    	; 0xecc <__fp_szero>
     c58:	cf c0       	rjmp	.+414    	; 0xdf8 <__fp_nan>

00000c5a <__divsf3x>:
     c5a:	15 d1       	rcall	.+554    	; 0xe86 <__fp_split3>
     c5c:	98 f3       	brcs	.-26     	; 0xc44 <__divsf3+0x4>

00000c5e <__divsf3_pse>:
     c5e:	99 23       	and	r25, r25
     c60:	c9 f3       	breq	.-14     	; 0xc54 <__divsf3+0x14>
     c62:	55 23       	and	r21, r21
     c64:	b1 f3       	breq	.-20     	; 0xc52 <__divsf3+0x12>
     c66:	95 1b       	sub	r25, r21
     c68:	55 0b       	sbc	r21, r21
     c6a:	bb 27       	eor	r27, r27
     c6c:	aa 27       	eor	r26, r26
     c6e:	62 17       	cp	r22, r18
     c70:	73 07       	cpc	r23, r19
     c72:	84 07       	cpc	r24, r20
     c74:	38 f0       	brcs	.+14     	; 0xc84 <__divsf3_pse+0x26>
     c76:	9f 5f       	subi	r25, 0xFF	; 255
     c78:	5f 4f       	sbci	r21, 0xFF	; 255
     c7a:	22 0f       	add	r18, r18
     c7c:	33 1f       	adc	r19, r19
     c7e:	44 1f       	adc	r20, r20
     c80:	aa 1f       	adc	r26, r26
     c82:	a9 f3       	breq	.-22     	; 0xc6e <__divsf3_pse+0x10>
     c84:	33 d0       	rcall	.+102    	; 0xcec <__divsf3_pse+0x8e>
     c86:	0e 2e       	mov	r0, r30
     c88:	3a f0       	brmi	.+14     	; 0xc98 <__divsf3_pse+0x3a>
     c8a:	e0 e8       	ldi	r30, 0x80	; 128
     c8c:	30 d0       	rcall	.+96     	; 0xcee <__divsf3_pse+0x90>
     c8e:	91 50       	subi	r25, 0x01	; 1
     c90:	50 40       	sbci	r21, 0x00	; 0
     c92:	e6 95       	lsr	r30
     c94:	00 1c       	adc	r0, r0
     c96:	ca f7       	brpl	.-14     	; 0xc8a <__divsf3_pse+0x2c>
     c98:	29 d0       	rcall	.+82     	; 0xcec <__divsf3_pse+0x8e>
     c9a:	fe 2f       	mov	r31, r30
     c9c:	27 d0       	rcall	.+78     	; 0xcec <__divsf3_pse+0x8e>
     c9e:	66 0f       	add	r22, r22
     ca0:	77 1f       	adc	r23, r23
     ca2:	88 1f       	adc	r24, r24
     ca4:	bb 1f       	adc	r27, r27
     ca6:	26 17       	cp	r18, r22
     ca8:	37 07       	cpc	r19, r23
     caa:	48 07       	cpc	r20, r24
     cac:	ab 07       	cpc	r26, r27
     cae:	b0 e8       	ldi	r27, 0x80	; 128
     cb0:	09 f0       	breq	.+2      	; 0xcb4 <__divsf3_pse+0x56>
     cb2:	bb 0b       	sbc	r27, r27
     cb4:	80 2d       	mov	r24, r0
     cb6:	bf 01       	movw	r22, r30
     cb8:	ff 27       	eor	r31, r31
     cba:	93 58       	subi	r25, 0x83	; 131
     cbc:	5f 4f       	sbci	r21, 0xFF	; 255
     cbe:	2a f0       	brmi	.+10     	; 0xcca <__divsf3_pse+0x6c>
     cc0:	9e 3f       	cpi	r25, 0xFE	; 254
     cc2:	51 05       	cpc	r21, r1
     cc4:	68 f0       	brcs	.+26     	; 0xce0 <__divsf3_pse+0x82>
     cc6:	92 c0       	rjmp	.+292    	; 0xdec <__fp_inf>
     cc8:	01 c1       	rjmp	.+514    	; 0xecc <__fp_szero>
     cca:	5f 3f       	cpi	r21, 0xFF	; 255
     ccc:	ec f3       	brlt	.-6      	; 0xcc8 <__divsf3_pse+0x6a>
     cce:	98 3e       	cpi	r25, 0xE8	; 232
     cd0:	dc f3       	brlt	.-10     	; 0xcc8 <__divsf3_pse+0x6a>
     cd2:	86 95       	lsr	r24
     cd4:	77 95       	ror	r23
     cd6:	67 95       	ror	r22
     cd8:	b7 95       	ror	r27
     cda:	f7 95       	ror	r31
     cdc:	9f 5f       	subi	r25, 0xFF	; 255
     cde:	c9 f7       	brne	.-14     	; 0xcd2 <__divsf3_pse+0x74>
     ce0:	88 0f       	add	r24, r24
     ce2:	91 1d       	adc	r25, r1
     ce4:	96 95       	lsr	r25
     ce6:	87 95       	ror	r24
     ce8:	97 f9       	bld	r25, 7
     cea:	08 95       	ret
     cec:	e1 e0       	ldi	r30, 0x01	; 1
     cee:	66 0f       	add	r22, r22
     cf0:	77 1f       	adc	r23, r23
     cf2:	88 1f       	adc	r24, r24
     cf4:	bb 1f       	adc	r27, r27
     cf6:	62 17       	cp	r22, r18
     cf8:	73 07       	cpc	r23, r19
     cfa:	84 07       	cpc	r24, r20
     cfc:	ba 07       	cpc	r27, r26
     cfe:	20 f0       	brcs	.+8      	; 0xd08 <__divsf3_pse+0xaa>
     d00:	62 1b       	sub	r22, r18
     d02:	73 0b       	sbc	r23, r19
     d04:	84 0b       	sbc	r24, r20
     d06:	ba 0b       	sbc	r27, r26
     d08:	ee 1f       	adc	r30, r30
     d0a:	88 f7       	brcc	.-30     	; 0xcee <__divsf3_pse+0x90>
     d0c:	e0 95       	com	r30
     d0e:	08 95       	ret

00000d10 <__fixsfsi>:
     d10:	04 d0       	rcall	.+8      	; 0xd1a <__fixunssfsi>
     d12:	68 94       	set
     d14:	b1 11       	cpse	r27, r1
     d16:	da c0       	rjmp	.+436    	; 0xecc <__fp_szero>
     d18:	08 95       	ret

00000d1a <__fixunssfsi>:
     d1a:	bd d0       	rcall	.+378    	; 0xe96 <__fp_splitA>
     d1c:	88 f0       	brcs	.+34     	; 0xd40 <__fixunssfsi+0x26>
     d1e:	9f 57       	subi	r25, 0x7F	; 127
     d20:	90 f0       	brcs	.+36     	; 0xd46 <__fixunssfsi+0x2c>
     d22:	b9 2f       	mov	r27, r25
     d24:	99 27       	eor	r25, r25
     d26:	b7 51       	subi	r27, 0x17	; 23
     d28:	a0 f0       	brcs	.+40     	; 0xd52 <__fixunssfsi+0x38>
     d2a:	d1 f0       	breq	.+52     	; 0xd60 <__fixunssfsi+0x46>
     d2c:	66 0f       	add	r22, r22
     d2e:	77 1f       	adc	r23, r23
     d30:	88 1f       	adc	r24, r24
     d32:	99 1f       	adc	r25, r25
     d34:	1a f0       	brmi	.+6      	; 0xd3c <__fixunssfsi+0x22>
     d36:	ba 95       	dec	r27
     d38:	c9 f7       	brne	.-14     	; 0xd2c <__fixunssfsi+0x12>
     d3a:	12 c0       	rjmp	.+36     	; 0xd60 <__fixunssfsi+0x46>
     d3c:	b1 30       	cpi	r27, 0x01	; 1
     d3e:	81 f0       	breq	.+32     	; 0xd60 <__fixunssfsi+0x46>
     d40:	c4 d0       	rcall	.+392    	; 0xeca <__fp_zero>
     d42:	b1 e0       	ldi	r27, 0x01	; 1
     d44:	08 95       	ret
     d46:	c1 c0       	rjmp	.+386    	; 0xeca <__fp_zero>
     d48:	67 2f       	mov	r22, r23
     d4a:	78 2f       	mov	r23, r24
     d4c:	88 27       	eor	r24, r24
     d4e:	b8 5f       	subi	r27, 0xF8	; 248
     d50:	39 f0       	breq	.+14     	; 0xd60 <__fixunssfsi+0x46>
     d52:	b9 3f       	cpi	r27, 0xF9	; 249
     d54:	cc f3       	brlt	.-14     	; 0xd48 <__fixunssfsi+0x2e>
     d56:	86 95       	lsr	r24
     d58:	77 95       	ror	r23
     d5a:	67 95       	ror	r22
     d5c:	b3 95       	inc	r27
     d5e:	d9 f7       	brne	.-10     	; 0xd56 <__fixunssfsi+0x3c>
     d60:	3e f4       	brtc	.+14     	; 0xd70 <__fixunssfsi+0x56>
     d62:	90 95       	com	r25
     d64:	80 95       	com	r24
     d66:	70 95       	com	r23
     d68:	61 95       	neg	r22
     d6a:	7f 4f       	sbci	r23, 0xFF	; 255
     d6c:	8f 4f       	sbci	r24, 0xFF	; 255
     d6e:	9f 4f       	sbci	r25, 0xFF	; 255
     d70:	08 95       	ret

00000d72 <__floatunsisf>:
     d72:	e8 94       	clt
     d74:	09 c0       	rjmp	.+18     	; 0xd88 <__floatsisf+0x12>

00000d76 <__floatsisf>:
     d76:	97 fb       	bst	r25, 7
     d78:	3e f4       	brtc	.+14     	; 0xd88 <__floatsisf+0x12>
     d7a:	90 95       	com	r25
     d7c:	80 95       	com	r24
     d7e:	70 95       	com	r23
     d80:	61 95       	neg	r22
     d82:	7f 4f       	sbci	r23, 0xFF	; 255
     d84:	8f 4f       	sbci	r24, 0xFF	; 255
     d86:	9f 4f       	sbci	r25, 0xFF	; 255
     d88:	99 23       	and	r25, r25
     d8a:	a9 f0       	breq	.+42     	; 0xdb6 <__floatsisf+0x40>
     d8c:	f9 2f       	mov	r31, r25
     d8e:	96 e9       	ldi	r25, 0x96	; 150
     d90:	bb 27       	eor	r27, r27
     d92:	93 95       	inc	r25
     d94:	f6 95       	lsr	r31
     d96:	87 95       	ror	r24
     d98:	77 95       	ror	r23
     d9a:	67 95       	ror	r22
     d9c:	b7 95       	ror	r27
     d9e:	f1 11       	cpse	r31, r1
     da0:	f8 cf       	rjmp	.-16     	; 0xd92 <__floatsisf+0x1c>
     da2:	fa f4       	brpl	.+62     	; 0xde2 <__floatsisf+0x6c>
     da4:	bb 0f       	add	r27, r27
     da6:	11 f4       	brne	.+4      	; 0xdac <__floatsisf+0x36>
     da8:	60 ff       	sbrs	r22, 0
     daa:	1b c0       	rjmp	.+54     	; 0xde2 <__floatsisf+0x6c>
     dac:	6f 5f       	subi	r22, 0xFF	; 255
     dae:	7f 4f       	sbci	r23, 0xFF	; 255
     db0:	8f 4f       	sbci	r24, 0xFF	; 255
     db2:	9f 4f       	sbci	r25, 0xFF	; 255
     db4:	16 c0       	rjmp	.+44     	; 0xde2 <__floatsisf+0x6c>
     db6:	88 23       	and	r24, r24
     db8:	11 f0       	breq	.+4      	; 0xdbe <__floatsisf+0x48>
     dba:	96 e9       	ldi	r25, 0x96	; 150
     dbc:	11 c0       	rjmp	.+34     	; 0xde0 <__floatsisf+0x6a>
     dbe:	77 23       	and	r23, r23
     dc0:	21 f0       	breq	.+8      	; 0xdca <__floatsisf+0x54>
     dc2:	9e e8       	ldi	r25, 0x8E	; 142
     dc4:	87 2f       	mov	r24, r23
     dc6:	76 2f       	mov	r23, r22
     dc8:	05 c0       	rjmp	.+10     	; 0xdd4 <__floatsisf+0x5e>
     dca:	66 23       	and	r22, r22
     dcc:	71 f0       	breq	.+28     	; 0xdea <__floatsisf+0x74>
     dce:	96 e8       	ldi	r25, 0x86	; 134
     dd0:	86 2f       	mov	r24, r22
     dd2:	70 e0       	ldi	r23, 0x00	; 0
     dd4:	60 e0       	ldi	r22, 0x00	; 0
     dd6:	2a f0       	brmi	.+10     	; 0xde2 <__floatsisf+0x6c>
     dd8:	9a 95       	dec	r25
     dda:	66 0f       	add	r22, r22
     ddc:	77 1f       	adc	r23, r23
     dde:	88 1f       	adc	r24, r24
     de0:	da f7       	brpl	.-10     	; 0xdd8 <__floatsisf+0x62>
     de2:	88 0f       	add	r24, r24
     de4:	96 95       	lsr	r25
     de6:	87 95       	ror	r24
     de8:	97 f9       	bld	r25, 7
     dea:	08 95       	ret

00000dec <__fp_inf>:
     dec:	97 f9       	bld	r25, 7
     dee:	9f 67       	ori	r25, 0x7F	; 127
     df0:	80 e8       	ldi	r24, 0x80	; 128
     df2:	70 e0       	ldi	r23, 0x00	; 0
     df4:	60 e0       	ldi	r22, 0x00	; 0
     df6:	08 95       	ret

00000df8 <__fp_nan>:
     df8:	9f ef       	ldi	r25, 0xFF	; 255
     dfa:	80 ec       	ldi	r24, 0xC0	; 192
     dfc:	08 95       	ret

00000dfe <__fp_powser>:
     dfe:	df 93       	push	r29
     e00:	cf 93       	push	r28
     e02:	1f 93       	push	r17
     e04:	0f 93       	push	r16
     e06:	ff 92       	push	r15
     e08:	ef 92       	push	r14
     e0a:	df 92       	push	r13
     e0c:	7b 01       	movw	r14, r22
     e0e:	8c 01       	movw	r16, r24
     e10:	68 94       	set
     e12:	05 c0       	rjmp	.+10     	; 0xe1e <__fp_powser+0x20>
     e14:	da 2e       	mov	r13, r26
     e16:	ef 01       	movw	r28, r30
     e18:	72 d0       	rcall	.+228    	; 0xefe <__mulsf3x>
     e1a:	fe 01       	movw	r30, r28
     e1c:	e8 94       	clt
     e1e:	a5 91       	lpm	r26, Z+
     e20:	25 91       	lpm	r18, Z+
     e22:	35 91       	lpm	r19, Z+
     e24:	45 91       	lpm	r20, Z+
     e26:	55 91       	lpm	r21, Z+
     e28:	ae f3       	brts	.-22     	; 0xe14 <__fp_powser+0x16>
     e2a:	ef 01       	movw	r28, r30
     e2c:	54 de       	rcall	.-856    	; 0xad6 <__addsf3x>
     e2e:	fe 01       	movw	r30, r28
     e30:	97 01       	movw	r18, r14
     e32:	a8 01       	movw	r20, r16
     e34:	da 94       	dec	r13
     e36:	79 f7       	brne	.-34     	; 0xe16 <__fp_powser+0x18>
     e38:	df 90       	pop	r13
     e3a:	ef 90       	pop	r14
     e3c:	ff 90       	pop	r15
     e3e:	0f 91       	pop	r16
     e40:	1f 91       	pop	r17
     e42:	cf 91       	pop	r28
     e44:	df 91       	pop	r29
     e46:	08 95       	ret

00000e48 <__fp_pscA>:
     e48:	00 24       	eor	r0, r0
     e4a:	0a 94       	dec	r0
     e4c:	16 16       	cp	r1, r22
     e4e:	17 06       	cpc	r1, r23
     e50:	18 06       	cpc	r1, r24
     e52:	09 06       	cpc	r0, r25
     e54:	08 95       	ret

00000e56 <__fp_pscB>:
     e56:	00 24       	eor	r0, r0
     e58:	0a 94       	dec	r0
     e5a:	12 16       	cp	r1, r18
     e5c:	13 06       	cpc	r1, r19
     e5e:	14 06       	cpc	r1, r20
     e60:	05 06       	cpc	r0, r21
     e62:	08 95       	ret

00000e64 <__fp_round>:
     e64:	09 2e       	mov	r0, r25
     e66:	03 94       	inc	r0
     e68:	00 0c       	add	r0, r0
     e6a:	11 f4       	brne	.+4      	; 0xe70 <__fp_round+0xc>
     e6c:	88 23       	and	r24, r24
     e6e:	52 f0       	brmi	.+20     	; 0xe84 <__fp_round+0x20>
     e70:	bb 0f       	add	r27, r27
     e72:	40 f4       	brcc	.+16     	; 0xe84 <__fp_round+0x20>
     e74:	bf 2b       	or	r27, r31
     e76:	11 f4       	brne	.+4      	; 0xe7c <__fp_round+0x18>
     e78:	60 ff       	sbrs	r22, 0
     e7a:	04 c0       	rjmp	.+8      	; 0xe84 <__fp_round+0x20>
     e7c:	6f 5f       	subi	r22, 0xFF	; 255
     e7e:	7f 4f       	sbci	r23, 0xFF	; 255
     e80:	8f 4f       	sbci	r24, 0xFF	; 255
     e82:	9f 4f       	sbci	r25, 0xFF	; 255
     e84:	08 95       	ret

00000e86 <__fp_split3>:
     e86:	57 fd       	sbrc	r21, 7
     e88:	90 58       	subi	r25, 0x80	; 128
     e8a:	44 0f       	add	r20, r20
     e8c:	55 1f       	adc	r21, r21
     e8e:	59 f0       	breq	.+22     	; 0xea6 <__fp_splitA+0x10>
     e90:	5f 3f       	cpi	r21, 0xFF	; 255
     e92:	71 f0       	breq	.+28     	; 0xeb0 <__fp_splitA+0x1a>
     e94:	47 95       	ror	r20

00000e96 <__fp_splitA>:
     e96:	88 0f       	add	r24, r24
     e98:	97 fb       	bst	r25, 7
     e9a:	99 1f       	adc	r25, r25
     e9c:	61 f0       	breq	.+24     	; 0xeb6 <__fp_splitA+0x20>
     e9e:	9f 3f       	cpi	r25, 0xFF	; 255
     ea0:	79 f0       	breq	.+30     	; 0xec0 <__fp_splitA+0x2a>
     ea2:	87 95       	ror	r24
     ea4:	08 95       	ret
     ea6:	12 16       	cp	r1, r18
     ea8:	13 06       	cpc	r1, r19
     eaa:	14 06       	cpc	r1, r20
     eac:	55 1f       	adc	r21, r21
     eae:	f2 cf       	rjmp	.-28     	; 0xe94 <__fp_split3+0xe>
     eb0:	46 95       	lsr	r20
     eb2:	f1 df       	rcall	.-30     	; 0xe96 <__fp_splitA>
     eb4:	08 c0       	rjmp	.+16     	; 0xec6 <__fp_splitA+0x30>
     eb6:	16 16       	cp	r1, r22
     eb8:	17 06       	cpc	r1, r23
     eba:	18 06       	cpc	r1, r24
     ebc:	99 1f       	adc	r25, r25
     ebe:	f1 cf       	rjmp	.-30     	; 0xea2 <__fp_splitA+0xc>
     ec0:	86 95       	lsr	r24
     ec2:	71 05       	cpc	r23, r1
     ec4:	61 05       	cpc	r22, r1
     ec6:	08 94       	sec
     ec8:	08 95       	ret

00000eca <__fp_zero>:
     eca:	e8 94       	clt

00000ecc <__fp_szero>:
     ecc:	bb 27       	eor	r27, r27
     ece:	66 27       	eor	r22, r22
     ed0:	77 27       	eor	r23, r23
     ed2:	cb 01       	movw	r24, r22
     ed4:	97 f9       	bld	r25, 7
     ed6:	08 95       	ret

00000ed8 <inverse>:
     ed8:	9b 01       	movw	r18, r22
     eda:	ac 01       	movw	r20, r24
     edc:	60 e0       	ldi	r22, 0x00	; 0
     ede:	70 e0       	ldi	r23, 0x00	; 0
     ee0:	80 e8       	ldi	r24, 0x80	; 128
     ee2:	9f e3       	ldi	r25, 0x3F	; 63
     ee4:	ad ce       	rjmp	.-678    	; 0xc40 <__divsf3>

00000ee6 <__mulsf3>:
     ee6:	0b d0       	rcall	.+22     	; 0xefe <__mulsf3x>
     ee8:	bd cf       	rjmp	.-134    	; 0xe64 <__fp_round>
     eea:	ae df       	rcall	.-164    	; 0xe48 <__fp_pscA>
     eec:	28 f0       	brcs	.+10     	; 0xef8 <__mulsf3+0x12>
     eee:	b3 df       	rcall	.-154    	; 0xe56 <__fp_pscB>
     ef0:	18 f0       	brcs	.+6      	; 0xef8 <__mulsf3+0x12>
     ef2:	95 23       	and	r25, r21
     ef4:	09 f0       	breq	.+2      	; 0xef8 <__mulsf3+0x12>
     ef6:	7a cf       	rjmp	.-268    	; 0xdec <__fp_inf>
     ef8:	7f cf       	rjmp	.-258    	; 0xdf8 <__fp_nan>
     efa:	11 24       	eor	r1, r1
     efc:	e7 cf       	rjmp	.-50     	; 0xecc <__fp_szero>

00000efe <__mulsf3x>:
     efe:	c3 df       	rcall	.-122    	; 0xe86 <__fp_split3>
     f00:	a0 f3       	brcs	.-24     	; 0xeea <__mulsf3+0x4>

00000f02 <__mulsf3_pse>:
     f02:	95 9f       	mul	r25, r21
     f04:	d1 f3       	breq	.-12     	; 0xefa <__mulsf3+0x14>
     f06:	95 0f       	add	r25, r21
     f08:	50 e0       	ldi	r21, 0x00	; 0
     f0a:	55 1f       	adc	r21, r21
     f0c:	62 9f       	mul	r22, r18
     f0e:	f0 01       	movw	r30, r0
     f10:	72 9f       	mul	r23, r18
     f12:	bb 27       	eor	r27, r27
     f14:	f0 0d       	add	r31, r0
     f16:	b1 1d       	adc	r27, r1
     f18:	63 9f       	mul	r22, r19
     f1a:	aa 27       	eor	r26, r26
     f1c:	f0 0d       	add	r31, r0
     f1e:	b1 1d       	adc	r27, r1
     f20:	aa 1f       	adc	r26, r26
     f22:	64 9f       	mul	r22, r20
     f24:	66 27       	eor	r22, r22
     f26:	b0 0d       	add	r27, r0
     f28:	a1 1d       	adc	r26, r1
     f2a:	66 1f       	adc	r22, r22
     f2c:	82 9f       	mul	r24, r18
     f2e:	22 27       	eor	r18, r18
     f30:	b0 0d       	add	r27, r0
     f32:	a1 1d       	adc	r26, r1
     f34:	62 1f       	adc	r22, r18
     f36:	73 9f       	mul	r23, r19
     f38:	b0 0d       	add	r27, r0
     f3a:	a1 1d       	adc	r26, r1
     f3c:	62 1f       	adc	r22, r18
     f3e:	83 9f       	mul	r24, r19
     f40:	a0 0d       	add	r26, r0
     f42:	61 1d       	adc	r22, r1
     f44:	22 1f       	adc	r18, r18
     f46:	74 9f       	mul	r23, r20
     f48:	33 27       	eor	r19, r19
     f4a:	a0 0d       	add	r26, r0
     f4c:	61 1d       	adc	r22, r1
     f4e:	23 1f       	adc	r18, r19
     f50:	84 9f       	mul	r24, r20
     f52:	60 0d       	add	r22, r0
     f54:	21 1d       	adc	r18, r1
     f56:	82 2f       	mov	r24, r18
     f58:	76 2f       	mov	r23, r22
     f5a:	6a 2f       	mov	r22, r26
     f5c:	11 24       	eor	r1, r1
     f5e:	9f 57       	subi	r25, 0x7F	; 127
     f60:	50 40       	sbci	r21, 0x00	; 0
     f62:	8a f0       	brmi	.+34     	; 0xf86 <__mulsf3_pse+0x84>
     f64:	e1 f0       	breq	.+56     	; 0xf9e <__mulsf3_pse+0x9c>
     f66:	88 23       	and	r24, r24
     f68:	4a f0       	brmi	.+18     	; 0xf7c <__mulsf3_pse+0x7a>
     f6a:	ee 0f       	add	r30, r30
     f6c:	ff 1f       	adc	r31, r31
     f6e:	bb 1f       	adc	r27, r27
     f70:	66 1f       	adc	r22, r22
     f72:	77 1f       	adc	r23, r23
     f74:	88 1f       	adc	r24, r24
     f76:	91 50       	subi	r25, 0x01	; 1
     f78:	50 40       	sbci	r21, 0x00	; 0
     f7a:	a9 f7       	brne	.-22     	; 0xf66 <__mulsf3_pse+0x64>
     f7c:	9e 3f       	cpi	r25, 0xFE	; 254
     f7e:	51 05       	cpc	r21, r1
     f80:	70 f0       	brcs	.+28     	; 0xf9e <__mulsf3_pse+0x9c>
     f82:	34 cf       	rjmp	.-408    	; 0xdec <__fp_inf>
     f84:	a3 cf       	rjmp	.-186    	; 0xecc <__fp_szero>
     f86:	5f 3f       	cpi	r21, 0xFF	; 255
     f88:	ec f3       	brlt	.-6      	; 0xf84 <__mulsf3_pse+0x82>
     f8a:	98 3e       	cpi	r25, 0xE8	; 232
     f8c:	dc f3       	brlt	.-10     	; 0xf84 <__mulsf3_pse+0x82>
     f8e:	86 95       	lsr	r24
     f90:	77 95       	ror	r23
     f92:	67 95       	ror	r22
     f94:	b7 95       	ror	r27
     f96:	f7 95       	ror	r31
     f98:	e7 95       	ror	r30
     f9a:	9f 5f       	subi	r25, 0xFF	; 255
     f9c:	c1 f7       	brne	.-16     	; 0xf8e <__mulsf3_pse+0x8c>
     f9e:	fe 2b       	or	r31, r30
     fa0:	88 0f       	add	r24, r24
     fa2:	91 1d       	adc	r25, r1
     fa4:	96 95       	lsr	r25
     fa6:	87 95       	ror	r24
     fa8:	97 f9       	bld	r25, 7
     faa:	08 95       	ret
     fac:	11 f4       	brne	.+4      	; 0xfb2 <__mulsf3_pse+0xb0>
     fae:	0e f4       	brtc	.+2      	; 0xfb2 <__mulsf3_pse+0xb0>
     fb0:	23 cf       	rjmp	.-442    	; 0xdf8 <__fp_nan>
     fb2:	41 c0       	rjmp	.+130    	; 0x1036 <__fp_mpack>

00000fb4 <sqrt>:
     fb4:	70 df       	rcall	.-288    	; 0xe96 <__fp_splitA>
     fb6:	d0 f3       	brcs	.-12     	; 0xfac <__mulsf3_pse+0xaa>
     fb8:	99 23       	and	r25, r25
     fba:	d9 f3       	breq	.-10     	; 0xfb2 <__mulsf3_pse+0xb0>
     fbc:	ce f3       	brts	.-14     	; 0xfb0 <__mulsf3_pse+0xae>
     fbe:	9f 57       	subi	r25, 0x7F	; 127
     fc0:	55 0b       	sbc	r21, r21
     fc2:	87 ff       	sbrs	r24, 7
     fc4:	46 d0       	rcall	.+140    	; 0x1052 <__fp_norm2>
     fc6:	00 24       	eor	r0, r0
     fc8:	a0 e6       	ldi	r26, 0x60	; 96
     fca:	40 ea       	ldi	r20, 0xA0	; 160
     fcc:	90 01       	movw	r18, r0
     fce:	80 58       	subi	r24, 0x80	; 128
     fd0:	56 95       	lsr	r21
     fd2:	97 95       	ror	r25
     fd4:	28 f4       	brcc	.+10     	; 0xfe0 <sqrt+0x2c>
     fd6:	80 5c       	subi	r24, 0xC0	; 192
     fd8:	66 0f       	add	r22, r22
     fda:	77 1f       	adc	r23, r23
     fdc:	88 1f       	adc	r24, r24
     fde:	20 f0       	brcs	.+8      	; 0xfe8 <sqrt+0x34>
     fe0:	26 17       	cp	r18, r22
     fe2:	37 07       	cpc	r19, r23
     fe4:	48 07       	cpc	r20, r24
     fe6:	30 f4       	brcc	.+12     	; 0xff4 <sqrt+0x40>
     fe8:	62 1b       	sub	r22, r18
     fea:	73 0b       	sbc	r23, r19
     fec:	84 0b       	sbc	r24, r20
     fee:	20 29       	or	r18, r0
     ff0:	31 29       	or	r19, r1
     ff2:	4a 2b       	or	r20, r26
     ff4:	a6 95       	lsr	r26
     ff6:	17 94       	ror	r1
     ff8:	07 94       	ror	r0
     ffa:	20 25       	eor	r18, r0
     ffc:	31 25       	eor	r19, r1
     ffe:	4a 27       	eor	r20, r26
    1000:	58 f7       	brcc	.-42     	; 0xfd8 <sqrt+0x24>
    1002:	66 0f       	add	r22, r22
    1004:	77 1f       	adc	r23, r23
    1006:	88 1f       	adc	r24, r24
    1008:	20 f0       	brcs	.+8      	; 0x1012 <__EEPROM_REGION_LENGTH__+0x12>
    100a:	26 17       	cp	r18, r22
    100c:	37 07       	cpc	r19, r23
    100e:	48 07       	cpc	r20, r24
    1010:	30 f4       	brcc	.+12     	; 0x101e <__EEPROM_REGION_LENGTH__+0x1e>
    1012:	62 0b       	sbc	r22, r18
    1014:	73 0b       	sbc	r23, r19
    1016:	84 0b       	sbc	r24, r20
    1018:	20 0d       	add	r18, r0
    101a:	31 1d       	adc	r19, r1
    101c:	41 1d       	adc	r20, r1
    101e:	a0 95       	com	r26
    1020:	81 f7       	brne	.-32     	; 0x1002 <__EEPROM_REGION_LENGTH__+0x2>
    1022:	b9 01       	movw	r22, r18
    1024:	84 2f       	mov	r24, r20
    1026:	91 58       	subi	r25, 0x81	; 129
    1028:	88 0f       	add	r24, r24
    102a:	96 95       	lsr	r25
    102c:	87 95       	ror	r24
    102e:	08 95       	ret

00001030 <square>:
    1030:	9b 01       	movw	r18, r22
    1032:	ac 01       	movw	r20, r24
    1034:	58 cf       	rjmp	.-336    	; 0xee6 <__mulsf3>

00001036 <__fp_mpack>:
    1036:	9f 3f       	cpi	r25, 0xFF	; 255
    1038:	31 f0       	breq	.+12     	; 0x1046 <__fp_mpack_finite+0xc>

0000103a <__fp_mpack_finite>:
    103a:	91 50       	subi	r25, 0x01	; 1
    103c:	20 f4       	brcc	.+8      	; 0x1046 <__fp_mpack_finite+0xc>
    103e:	87 95       	ror	r24
    1040:	77 95       	ror	r23
    1042:	67 95       	ror	r22
    1044:	b7 95       	ror	r27
    1046:	88 0f       	add	r24, r24
    1048:	91 1d       	adc	r25, r1
    104a:	96 95       	lsr	r25
    104c:	87 95       	ror	r24
    104e:	97 f9       	bld	r25, 7
    1050:	08 95       	ret

00001052 <__fp_norm2>:
    1052:	91 50       	subi	r25, 0x01	; 1
    1054:	50 40       	sbci	r21, 0x00	; 0
    1056:	66 0f       	add	r22, r22
    1058:	77 1f       	adc	r23, r23
    105a:	88 1f       	adc	r24, r24
    105c:	d2 f7       	brpl	.-12     	; 0x1052 <__fp_norm2>
    105e:	08 95       	ret

00001060 <dtostrf>:
    1060:	ef 92       	push	r14
    1062:	0f 93       	push	r16
    1064:	1f 93       	push	r17
    1066:	cf 93       	push	r28
    1068:	df 93       	push	r29
    106a:	e8 01       	movw	r28, r16
    106c:	47 fd       	sbrc	r20, 7
    106e:	02 c0       	rjmp	.+4      	; 0x1074 <dtostrf+0x14>
    1070:	34 e0       	ldi	r19, 0x04	; 4
    1072:	01 c0       	rjmp	.+2      	; 0x1076 <dtostrf+0x16>
    1074:	34 e1       	ldi	r19, 0x14	; 20
    1076:	04 2e       	mov	r0, r20
    1078:	00 0c       	add	r0, r0
    107a:	55 0b       	sbc	r21, r21
    107c:	57 ff       	sbrs	r21, 7
    107e:	03 c0       	rjmp	.+6      	; 0x1086 <dtostrf+0x26>
    1080:	51 95       	neg	r21
    1082:	41 95       	neg	r20
    1084:	51 09       	sbc	r21, r1
    1086:	e3 2e       	mov	r14, r19
    1088:	02 2f       	mov	r16, r18
    108a:	24 2f       	mov	r18, r20
    108c:	ae 01       	movw	r20, r28
    108e:	32 d2       	rcall	.+1124   	; 0x14f4 <dtoa_prf>
    1090:	ce 01       	movw	r24, r28
    1092:	df 91       	pop	r29
    1094:	cf 91       	pop	r28
    1096:	1f 91       	pop	r17
    1098:	0f 91       	pop	r16
    109a:	ef 90       	pop	r14
    109c:	08 95       	ret

0000109e <sprintf>:
    109e:	0f 93       	push	r16
    10a0:	1f 93       	push	r17
    10a2:	cf 93       	push	r28
    10a4:	df 93       	push	r29
    10a6:	cd b7       	in	r28, 0x3d	; 61
    10a8:	de b7       	in	r29, 0x3e	; 62
    10aa:	2e 97       	sbiw	r28, 0x0e	; 14
    10ac:	0f b6       	in	r0, 0x3f	; 63
    10ae:	f8 94       	cli
    10b0:	de bf       	out	0x3e, r29	; 62
    10b2:	0f be       	out	0x3f, r0	; 63
    10b4:	cd bf       	out	0x3d, r28	; 61
    10b6:	0e 89       	ldd	r16, Y+22	; 0x16
    10b8:	1f 89       	ldd	r17, Y+23	; 0x17
    10ba:	86 e0       	ldi	r24, 0x06	; 6
    10bc:	8c 83       	std	Y+4, r24	; 0x04
    10be:	1a 83       	std	Y+2, r17	; 0x02
    10c0:	09 83       	std	Y+1, r16	; 0x01
    10c2:	8f ef       	ldi	r24, 0xFF	; 255
    10c4:	9f e7       	ldi	r25, 0x7F	; 127
    10c6:	9e 83       	std	Y+6, r25	; 0x06
    10c8:	8d 83       	std	Y+5, r24	; 0x05
    10ca:	ae 01       	movw	r20, r28
    10cc:	46 5e       	subi	r20, 0xE6	; 230
    10ce:	5f 4f       	sbci	r21, 0xFF	; 255
    10d0:	68 8d       	ldd	r22, Y+24	; 0x18
    10d2:	79 8d       	ldd	r23, Y+25	; 0x19
    10d4:	ce 01       	movw	r24, r28
    10d6:	01 96       	adiw	r24, 0x01	; 1
    10d8:	10 d0       	rcall	.+32     	; 0x10fa <vfprintf>
    10da:	ef 81       	ldd	r30, Y+7	; 0x07
    10dc:	f8 85       	ldd	r31, Y+8	; 0x08
    10de:	e0 0f       	add	r30, r16
    10e0:	f1 1f       	adc	r31, r17
    10e2:	10 82       	st	Z, r1
    10e4:	2e 96       	adiw	r28, 0x0e	; 14
    10e6:	0f b6       	in	r0, 0x3f	; 63
    10e8:	f8 94       	cli
    10ea:	de bf       	out	0x3e, r29	; 62
    10ec:	0f be       	out	0x3f, r0	; 63
    10ee:	cd bf       	out	0x3d, r28	; 61
    10f0:	df 91       	pop	r29
    10f2:	cf 91       	pop	r28
    10f4:	1f 91       	pop	r17
    10f6:	0f 91       	pop	r16
    10f8:	08 95       	ret

000010fa <vfprintf>:
    10fa:	2f 92       	push	r2
    10fc:	3f 92       	push	r3
    10fe:	4f 92       	push	r4
    1100:	5f 92       	push	r5
    1102:	6f 92       	push	r6
    1104:	7f 92       	push	r7
    1106:	8f 92       	push	r8
    1108:	9f 92       	push	r9
    110a:	af 92       	push	r10
    110c:	bf 92       	push	r11
    110e:	cf 92       	push	r12
    1110:	df 92       	push	r13
    1112:	ef 92       	push	r14
    1114:	ff 92       	push	r15
    1116:	0f 93       	push	r16
    1118:	1f 93       	push	r17
    111a:	cf 93       	push	r28
    111c:	df 93       	push	r29
    111e:	cd b7       	in	r28, 0x3d	; 61
    1120:	de b7       	in	r29, 0x3e	; 62
    1122:	2b 97       	sbiw	r28, 0x0b	; 11
    1124:	0f b6       	in	r0, 0x3f	; 63
    1126:	f8 94       	cli
    1128:	de bf       	out	0x3e, r29	; 62
    112a:	0f be       	out	0x3f, r0	; 63
    112c:	cd bf       	out	0x3d, r28	; 61
    112e:	6c 01       	movw	r12, r24
    1130:	7b 01       	movw	r14, r22
    1132:	8a 01       	movw	r16, r20
    1134:	fc 01       	movw	r30, r24
    1136:	17 82       	std	Z+7, r1	; 0x07
    1138:	16 82       	std	Z+6, r1	; 0x06
    113a:	83 81       	ldd	r24, Z+3	; 0x03
    113c:	81 ff       	sbrs	r24, 1
    113e:	bf c1       	rjmp	.+894    	; 0x14be <vfprintf+0x3c4>
    1140:	ce 01       	movw	r24, r28
    1142:	01 96       	adiw	r24, 0x01	; 1
    1144:	3c 01       	movw	r6, r24
    1146:	f6 01       	movw	r30, r12
    1148:	93 81       	ldd	r25, Z+3	; 0x03
    114a:	f7 01       	movw	r30, r14
    114c:	93 fd       	sbrc	r25, 3
    114e:	85 91       	lpm	r24, Z+
    1150:	93 ff       	sbrs	r25, 3
    1152:	81 91       	ld	r24, Z+
    1154:	7f 01       	movw	r14, r30
    1156:	88 23       	and	r24, r24
    1158:	09 f4       	brne	.+2      	; 0x115c <vfprintf+0x62>
    115a:	ad c1       	rjmp	.+858    	; 0x14b6 <vfprintf+0x3bc>
    115c:	85 32       	cpi	r24, 0x25	; 37
    115e:	39 f4       	brne	.+14     	; 0x116e <vfprintf+0x74>
    1160:	93 fd       	sbrc	r25, 3
    1162:	85 91       	lpm	r24, Z+
    1164:	93 ff       	sbrs	r25, 3
    1166:	81 91       	ld	r24, Z+
    1168:	7f 01       	movw	r14, r30
    116a:	85 32       	cpi	r24, 0x25	; 37
    116c:	21 f4       	brne	.+8      	; 0x1176 <vfprintf+0x7c>
    116e:	b6 01       	movw	r22, r12
    1170:	90 e0       	ldi	r25, 0x00	; 0
    1172:	24 d4       	rcall	.+2120   	; 0x19bc <fputc>
    1174:	e8 cf       	rjmp	.-48     	; 0x1146 <vfprintf+0x4c>
    1176:	91 2c       	mov	r9, r1
    1178:	21 2c       	mov	r2, r1
    117a:	31 2c       	mov	r3, r1
    117c:	ff e1       	ldi	r31, 0x1F	; 31
    117e:	f3 15       	cp	r31, r3
    1180:	d8 f0       	brcs	.+54     	; 0x11b8 <vfprintf+0xbe>
    1182:	8b 32       	cpi	r24, 0x2B	; 43
    1184:	79 f0       	breq	.+30     	; 0x11a4 <vfprintf+0xaa>
    1186:	38 f4       	brcc	.+14     	; 0x1196 <vfprintf+0x9c>
    1188:	80 32       	cpi	r24, 0x20	; 32
    118a:	79 f0       	breq	.+30     	; 0x11aa <vfprintf+0xb0>
    118c:	83 32       	cpi	r24, 0x23	; 35
    118e:	a1 f4       	brne	.+40     	; 0x11b8 <vfprintf+0xbe>
    1190:	23 2d       	mov	r18, r3
    1192:	20 61       	ori	r18, 0x10	; 16
    1194:	1d c0       	rjmp	.+58     	; 0x11d0 <vfprintf+0xd6>
    1196:	8d 32       	cpi	r24, 0x2D	; 45
    1198:	61 f0       	breq	.+24     	; 0x11b2 <vfprintf+0xb8>
    119a:	80 33       	cpi	r24, 0x30	; 48
    119c:	69 f4       	brne	.+26     	; 0x11b8 <vfprintf+0xbe>
    119e:	23 2d       	mov	r18, r3
    11a0:	21 60       	ori	r18, 0x01	; 1
    11a2:	16 c0       	rjmp	.+44     	; 0x11d0 <vfprintf+0xd6>
    11a4:	83 2d       	mov	r24, r3
    11a6:	82 60       	ori	r24, 0x02	; 2
    11a8:	38 2e       	mov	r3, r24
    11aa:	e3 2d       	mov	r30, r3
    11ac:	e4 60       	ori	r30, 0x04	; 4
    11ae:	3e 2e       	mov	r3, r30
    11b0:	2a c0       	rjmp	.+84     	; 0x1206 <vfprintf+0x10c>
    11b2:	f3 2d       	mov	r31, r3
    11b4:	f8 60       	ori	r31, 0x08	; 8
    11b6:	1d c0       	rjmp	.+58     	; 0x11f2 <vfprintf+0xf8>
    11b8:	37 fc       	sbrc	r3, 7
    11ba:	2d c0       	rjmp	.+90     	; 0x1216 <vfprintf+0x11c>
    11bc:	20 ed       	ldi	r18, 0xD0	; 208
    11be:	28 0f       	add	r18, r24
    11c0:	2a 30       	cpi	r18, 0x0A	; 10
    11c2:	40 f0       	brcs	.+16     	; 0x11d4 <vfprintf+0xda>
    11c4:	8e 32       	cpi	r24, 0x2E	; 46
    11c6:	b9 f4       	brne	.+46     	; 0x11f6 <vfprintf+0xfc>
    11c8:	36 fc       	sbrc	r3, 6
    11ca:	75 c1       	rjmp	.+746    	; 0x14b6 <vfprintf+0x3bc>
    11cc:	23 2d       	mov	r18, r3
    11ce:	20 64       	ori	r18, 0x40	; 64
    11d0:	32 2e       	mov	r3, r18
    11d2:	19 c0       	rjmp	.+50     	; 0x1206 <vfprintf+0x10c>
    11d4:	36 fe       	sbrs	r3, 6
    11d6:	06 c0       	rjmp	.+12     	; 0x11e4 <vfprintf+0xea>
    11d8:	8a e0       	ldi	r24, 0x0A	; 10
    11da:	98 9e       	mul	r9, r24
    11dc:	20 0d       	add	r18, r0
    11de:	11 24       	eor	r1, r1
    11e0:	92 2e       	mov	r9, r18
    11e2:	11 c0       	rjmp	.+34     	; 0x1206 <vfprintf+0x10c>
    11e4:	ea e0       	ldi	r30, 0x0A	; 10
    11e6:	2e 9e       	mul	r2, r30
    11e8:	20 0d       	add	r18, r0
    11ea:	11 24       	eor	r1, r1
    11ec:	22 2e       	mov	r2, r18
    11ee:	f3 2d       	mov	r31, r3
    11f0:	f0 62       	ori	r31, 0x20	; 32
    11f2:	3f 2e       	mov	r3, r31
    11f4:	08 c0       	rjmp	.+16     	; 0x1206 <vfprintf+0x10c>
    11f6:	8c 36       	cpi	r24, 0x6C	; 108
    11f8:	21 f4       	brne	.+8      	; 0x1202 <vfprintf+0x108>
    11fa:	83 2d       	mov	r24, r3
    11fc:	80 68       	ori	r24, 0x80	; 128
    11fe:	38 2e       	mov	r3, r24
    1200:	02 c0       	rjmp	.+4      	; 0x1206 <vfprintf+0x10c>
    1202:	88 36       	cpi	r24, 0x68	; 104
    1204:	41 f4       	brne	.+16     	; 0x1216 <vfprintf+0x11c>
    1206:	f7 01       	movw	r30, r14
    1208:	93 fd       	sbrc	r25, 3
    120a:	85 91       	lpm	r24, Z+
    120c:	93 ff       	sbrs	r25, 3
    120e:	81 91       	ld	r24, Z+
    1210:	7f 01       	movw	r14, r30
    1212:	81 11       	cpse	r24, r1
    1214:	b3 cf       	rjmp	.-154    	; 0x117c <vfprintf+0x82>
    1216:	98 2f       	mov	r25, r24
    1218:	9f 7d       	andi	r25, 0xDF	; 223
    121a:	95 54       	subi	r25, 0x45	; 69
    121c:	93 30       	cpi	r25, 0x03	; 3
    121e:	28 f4       	brcc	.+10     	; 0x122a <vfprintf+0x130>
    1220:	0c 5f       	subi	r16, 0xFC	; 252
    1222:	1f 4f       	sbci	r17, 0xFF	; 255
    1224:	9f e3       	ldi	r25, 0x3F	; 63
    1226:	99 83       	std	Y+1, r25	; 0x01
    1228:	0d c0       	rjmp	.+26     	; 0x1244 <vfprintf+0x14a>
    122a:	83 36       	cpi	r24, 0x63	; 99
    122c:	31 f0       	breq	.+12     	; 0x123a <vfprintf+0x140>
    122e:	83 37       	cpi	r24, 0x73	; 115
    1230:	71 f0       	breq	.+28     	; 0x124e <vfprintf+0x154>
    1232:	83 35       	cpi	r24, 0x53	; 83
    1234:	09 f0       	breq	.+2      	; 0x1238 <vfprintf+0x13e>
    1236:	55 c0       	rjmp	.+170    	; 0x12e2 <vfprintf+0x1e8>
    1238:	20 c0       	rjmp	.+64     	; 0x127a <vfprintf+0x180>
    123a:	f8 01       	movw	r30, r16
    123c:	80 81       	ld	r24, Z
    123e:	89 83       	std	Y+1, r24	; 0x01
    1240:	0e 5f       	subi	r16, 0xFE	; 254
    1242:	1f 4f       	sbci	r17, 0xFF	; 255
    1244:	88 24       	eor	r8, r8
    1246:	83 94       	inc	r8
    1248:	91 2c       	mov	r9, r1
    124a:	53 01       	movw	r10, r6
    124c:	12 c0       	rjmp	.+36     	; 0x1272 <vfprintf+0x178>
    124e:	28 01       	movw	r4, r16
    1250:	f2 e0       	ldi	r31, 0x02	; 2
    1252:	4f 0e       	add	r4, r31
    1254:	51 1c       	adc	r5, r1
    1256:	f8 01       	movw	r30, r16
    1258:	a0 80       	ld	r10, Z
    125a:	b1 80       	ldd	r11, Z+1	; 0x01
    125c:	36 fe       	sbrs	r3, 6
    125e:	03 c0       	rjmp	.+6      	; 0x1266 <vfprintf+0x16c>
    1260:	69 2d       	mov	r22, r9
    1262:	70 e0       	ldi	r23, 0x00	; 0
    1264:	02 c0       	rjmp	.+4      	; 0x126a <vfprintf+0x170>
    1266:	6f ef       	ldi	r22, 0xFF	; 255
    1268:	7f ef       	ldi	r23, 0xFF	; 255
    126a:	c5 01       	movw	r24, r10
    126c:	9c d3       	rcall	.+1848   	; 0x19a6 <strnlen>
    126e:	4c 01       	movw	r8, r24
    1270:	82 01       	movw	r16, r4
    1272:	f3 2d       	mov	r31, r3
    1274:	ff 77       	andi	r31, 0x7F	; 127
    1276:	3f 2e       	mov	r3, r31
    1278:	15 c0       	rjmp	.+42     	; 0x12a4 <vfprintf+0x1aa>
    127a:	28 01       	movw	r4, r16
    127c:	22 e0       	ldi	r18, 0x02	; 2
    127e:	42 0e       	add	r4, r18
    1280:	51 1c       	adc	r5, r1
    1282:	f8 01       	movw	r30, r16
    1284:	a0 80       	ld	r10, Z
    1286:	b1 80       	ldd	r11, Z+1	; 0x01
    1288:	36 fe       	sbrs	r3, 6
    128a:	03 c0       	rjmp	.+6      	; 0x1292 <vfprintf+0x198>
    128c:	69 2d       	mov	r22, r9
    128e:	70 e0       	ldi	r23, 0x00	; 0
    1290:	02 c0       	rjmp	.+4      	; 0x1296 <vfprintf+0x19c>
    1292:	6f ef       	ldi	r22, 0xFF	; 255
    1294:	7f ef       	ldi	r23, 0xFF	; 255
    1296:	c5 01       	movw	r24, r10
    1298:	7b d3       	rcall	.+1782   	; 0x1990 <strnlen_P>
    129a:	4c 01       	movw	r8, r24
    129c:	f3 2d       	mov	r31, r3
    129e:	f0 68       	ori	r31, 0x80	; 128
    12a0:	3f 2e       	mov	r3, r31
    12a2:	82 01       	movw	r16, r4
    12a4:	33 fc       	sbrc	r3, 3
    12a6:	19 c0       	rjmp	.+50     	; 0x12da <vfprintf+0x1e0>
    12a8:	82 2d       	mov	r24, r2
    12aa:	90 e0       	ldi	r25, 0x00	; 0
    12ac:	88 16       	cp	r8, r24
    12ae:	99 06       	cpc	r9, r25
    12b0:	a0 f4       	brcc	.+40     	; 0x12da <vfprintf+0x1e0>
    12b2:	b6 01       	movw	r22, r12
    12b4:	80 e2       	ldi	r24, 0x20	; 32
    12b6:	90 e0       	ldi	r25, 0x00	; 0
    12b8:	81 d3       	rcall	.+1794   	; 0x19bc <fputc>
    12ba:	2a 94       	dec	r2
    12bc:	f5 cf       	rjmp	.-22     	; 0x12a8 <vfprintf+0x1ae>
    12be:	f5 01       	movw	r30, r10
    12c0:	37 fc       	sbrc	r3, 7
    12c2:	85 91       	lpm	r24, Z+
    12c4:	37 fe       	sbrs	r3, 7
    12c6:	81 91       	ld	r24, Z+
    12c8:	5f 01       	movw	r10, r30
    12ca:	b6 01       	movw	r22, r12
    12cc:	90 e0       	ldi	r25, 0x00	; 0
    12ce:	76 d3       	rcall	.+1772   	; 0x19bc <fputc>
    12d0:	21 10       	cpse	r2, r1
    12d2:	2a 94       	dec	r2
    12d4:	21 e0       	ldi	r18, 0x01	; 1
    12d6:	82 1a       	sub	r8, r18
    12d8:	91 08       	sbc	r9, r1
    12da:	81 14       	cp	r8, r1
    12dc:	91 04       	cpc	r9, r1
    12de:	79 f7       	brne	.-34     	; 0x12be <vfprintf+0x1c4>
    12e0:	e1 c0       	rjmp	.+450    	; 0x14a4 <vfprintf+0x3aa>
    12e2:	84 36       	cpi	r24, 0x64	; 100
    12e4:	11 f0       	breq	.+4      	; 0x12ea <vfprintf+0x1f0>
    12e6:	89 36       	cpi	r24, 0x69	; 105
    12e8:	39 f5       	brne	.+78     	; 0x1338 <vfprintf+0x23e>
    12ea:	f8 01       	movw	r30, r16
    12ec:	37 fe       	sbrs	r3, 7
    12ee:	07 c0       	rjmp	.+14     	; 0x12fe <vfprintf+0x204>
    12f0:	60 81       	ld	r22, Z
    12f2:	71 81       	ldd	r23, Z+1	; 0x01
    12f4:	82 81       	ldd	r24, Z+2	; 0x02
    12f6:	93 81       	ldd	r25, Z+3	; 0x03
    12f8:	0c 5f       	subi	r16, 0xFC	; 252
    12fa:	1f 4f       	sbci	r17, 0xFF	; 255
    12fc:	08 c0       	rjmp	.+16     	; 0x130e <vfprintf+0x214>
    12fe:	60 81       	ld	r22, Z
    1300:	71 81       	ldd	r23, Z+1	; 0x01
    1302:	07 2e       	mov	r0, r23
    1304:	00 0c       	add	r0, r0
    1306:	88 0b       	sbc	r24, r24
    1308:	99 0b       	sbc	r25, r25
    130a:	0e 5f       	subi	r16, 0xFE	; 254
    130c:	1f 4f       	sbci	r17, 0xFF	; 255
    130e:	f3 2d       	mov	r31, r3
    1310:	ff 76       	andi	r31, 0x6F	; 111
    1312:	3f 2e       	mov	r3, r31
    1314:	97 ff       	sbrs	r25, 7
    1316:	09 c0       	rjmp	.+18     	; 0x132a <vfprintf+0x230>
    1318:	90 95       	com	r25
    131a:	80 95       	com	r24
    131c:	70 95       	com	r23
    131e:	61 95       	neg	r22
    1320:	7f 4f       	sbci	r23, 0xFF	; 255
    1322:	8f 4f       	sbci	r24, 0xFF	; 255
    1324:	9f 4f       	sbci	r25, 0xFF	; 255
    1326:	f0 68       	ori	r31, 0x80	; 128
    1328:	3f 2e       	mov	r3, r31
    132a:	2a e0       	ldi	r18, 0x0A	; 10
    132c:	30 e0       	ldi	r19, 0x00	; 0
    132e:	a3 01       	movw	r20, r6
    1330:	81 d3       	rcall	.+1794   	; 0x1a34 <__ultoa_invert>
    1332:	88 2e       	mov	r8, r24
    1334:	86 18       	sub	r8, r6
    1336:	44 c0       	rjmp	.+136    	; 0x13c0 <vfprintf+0x2c6>
    1338:	85 37       	cpi	r24, 0x75	; 117
    133a:	31 f4       	brne	.+12     	; 0x1348 <vfprintf+0x24e>
    133c:	23 2d       	mov	r18, r3
    133e:	2f 7e       	andi	r18, 0xEF	; 239
    1340:	b2 2e       	mov	r11, r18
    1342:	2a e0       	ldi	r18, 0x0A	; 10
    1344:	30 e0       	ldi	r19, 0x00	; 0
    1346:	25 c0       	rjmp	.+74     	; 0x1392 <vfprintf+0x298>
    1348:	93 2d       	mov	r25, r3
    134a:	99 7f       	andi	r25, 0xF9	; 249
    134c:	b9 2e       	mov	r11, r25
    134e:	8f 36       	cpi	r24, 0x6F	; 111
    1350:	c1 f0       	breq	.+48     	; 0x1382 <vfprintf+0x288>
    1352:	18 f4       	brcc	.+6      	; 0x135a <vfprintf+0x260>
    1354:	88 35       	cpi	r24, 0x58	; 88
    1356:	79 f0       	breq	.+30     	; 0x1376 <vfprintf+0x27c>
    1358:	ae c0       	rjmp	.+348    	; 0x14b6 <vfprintf+0x3bc>
    135a:	80 37       	cpi	r24, 0x70	; 112
    135c:	19 f0       	breq	.+6      	; 0x1364 <vfprintf+0x26a>
    135e:	88 37       	cpi	r24, 0x78	; 120
    1360:	21 f0       	breq	.+8      	; 0x136a <vfprintf+0x270>
    1362:	a9 c0       	rjmp	.+338    	; 0x14b6 <vfprintf+0x3bc>
    1364:	e9 2f       	mov	r30, r25
    1366:	e0 61       	ori	r30, 0x10	; 16
    1368:	be 2e       	mov	r11, r30
    136a:	b4 fe       	sbrs	r11, 4
    136c:	0d c0       	rjmp	.+26     	; 0x1388 <vfprintf+0x28e>
    136e:	fb 2d       	mov	r31, r11
    1370:	f4 60       	ori	r31, 0x04	; 4
    1372:	bf 2e       	mov	r11, r31
    1374:	09 c0       	rjmp	.+18     	; 0x1388 <vfprintf+0x28e>
    1376:	34 fe       	sbrs	r3, 4
    1378:	0a c0       	rjmp	.+20     	; 0x138e <vfprintf+0x294>
    137a:	29 2f       	mov	r18, r25
    137c:	26 60       	ori	r18, 0x06	; 6
    137e:	b2 2e       	mov	r11, r18
    1380:	06 c0       	rjmp	.+12     	; 0x138e <vfprintf+0x294>
    1382:	28 e0       	ldi	r18, 0x08	; 8
    1384:	30 e0       	ldi	r19, 0x00	; 0
    1386:	05 c0       	rjmp	.+10     	; 0x1392 <vfprintf+0x298>
    1388:	20 e1       	ldi	r18, 0x10	; 16
    138a:	30 e0       	ldi	r19, 0x00	; 0
    138c:	02 c0       	rjmp	.+4      	; 0x1392 <vfprintf+0x298>
    138e:	20 e1       	ldi	r18, 0x10	; 16
    1390:	32 e0       	ldi	r19, 0x02	; 2
    1392:	f8 01       	movw	r30, r16
    1394:	b7 fe       	sbrs	r11, 7
    1396:	07 c0       	rjmp	.+14     	; 0x13a6 <vfprintf+0x2ac>
    1398:	60 81       	ld	r22, Z
    139a:	71 81       	ldd	r23, Z+1	; 0x01
    139c:	82 81       	ldd	r24, Z+2	; 0x02
    139e:	93 81       	ldd	r25, Z+3	; 0x03
    13a0:	0c 5f       	subi	r16, 0xFC	; 252
    13a2:	1f 4f       	sbci	r17, 0xFF	; 255
    13a4:	06 c0       	rjmp	.+12     	; 0x13b2 <vfprintf+0x2b8>
    13a6:	60 81       	ld	r22, Z
    13a8:	71 81       	ldd	r23, Z+1	; 0x01
    13aa:	80 e0       	ldi	r24, 0x00	; 0
    13ac:	90 e0       	ldi	r25, 0x00	; 0
    13ae:	0e 5f       	subi	r16, 0xFE	; 254
    13b0:	1f 4f       	sbci	r17, 0xFF	; 255
    13b2:	a3 01       	movw	r20, r6
    13b4:	3f d3       	rcall	.+1662   	; 0x1a34 <__ultoa_invert>
    13b6:	88 2e       	mov	r8, r24
    13b8:	86 18       	sub	r8, r6
    13ba:	fb 2d       	mov	r31, r11
    13bc:	ff 77       	andi	r31, 0x7F	; 127
    13be:	3f 2e       	mov	r3, r31
    13c0:	36 fe       	sbrs	r3, 6
    13c2:	0d c0       	rjmp	.+26     	; 0x13de <vfprintf+0x2e4>
    13c4:	23 2d       	mov	r18, r3
    13c6:	2e 7f       	andi	r18, 0xFE	; 254
    13c8:	a2 2e       	mov	r10, r18
    13ca:	89 14       	cp	r8, r9
    13cc:	58 f4       	brcc	.+22     	; 0x13e4 <vfprintf+0x2ea>
    13ce:	34 fe       	sbrs	r3, 4
    13d0:	0b c0       	rjmp	.+22     	; 0x13e8 <vfprintf+0x2ee>
    13d2:	32 fc       	sbrc	r3, 2
    13d4:	09 c0       	rjmp	.+18     	; 0x13e8 <vfprintf+0x2ee>
    13d6:	83 2d       	mov	r24, r3
    13d8:	8e 7e       	andi	r24, 0xEE	; 238
    13da:	a8 2e       	mov	r10, r24
    13dc:	05 c0       	rjmp	.+10     	; 0x13e8 <vfprintf+0x2ee>
    13de:	b8 2c       	mov	r11, r8
    13e0:	a3 2c       	mov	r10, r3
    13e2:	03 c0       	rjmp	.+6      	; 0x13ea <vfprintf+0x2f0>
    13e4:	b8 2c       	mov	r11, r8
    13e6:	01 c0       	rjmp	.+2      	; 0x13ea <vfprintf+0x2f0>
    13e8:	b9 2c       	mov	r11, r9
    13ea:	a4 fe       	sbrs	r10, 4
    13ec:	0f c0       	rjmp	.+30     	; 0x140c <vfprintf+0x312>
    13ee:	fe 01       	movw	r30, r28
    13f0:	e8 0d       	add	r30, r8
    13f2:	f1 1d       	adc	r31, r1
    13f4:	80 81       	ld	r24, Z
    13f6:	80 33       	cpi	r24, 0x30	; 48
    13f8:	21 f4       	brne	.+8      	; 0x1402 <vfprintf+0x308>
    13fa:	9a 2d       	mov	r25, r10
    13fc:	99 7e       	andi	r25, 0xE9	; 233
    13fe:	a9 2e       	mov	r10, r25
    1400:	09 c0       	rjmp	.+18     	; 0x1414 <vfprintf+0x31a>
    1402:	a2 fe       	sbrs	r10, 2
    1404:	06 c0       	rjmp	.+12     	; 0x1412 <vfprintf+0x318>
    1406:	b3 94       	inc	r11
    1408:	b3 94       	inc	r11
    140a:	04 c0       	rjmp	.+8      	; 0x1414 <vfprintf+0x31a>
    140c:	8a 2d       	mov	r24, r10
    140e:	86 78       	andi	r24, 0x86	; 134
    1410:	09 f0       	breq	.+2      	; 0x1414 <vfprintf+0x31a>
    1412:	b3 94       	inc	r11
    1414:	a3 fc       	sbrc	r10, 3
    1416:	10 c0       	rjmp	.+32     	; 0x1438 <vfprintf+0x33e>
    1418:	a0 fe       	sbrs	r10, 0
    141a:	06 c0       	rjmp	.+12     	; 0x1428 <vfprintf+0x32e>
    141c:	b2 14       	cp	r11, r2
    141e:	80 f4       	brcc	.+32     	; 0x1440 <vfprintf+0x346>
    1420:	28 0c       	add	r2, r8
    1422:	92 2c       	mov	r9, r2
    1424:	9b 18       	sub	r9, r11
    1426:	0d c0       	rjmp	.+26     	; 0x1442 <vfprintf+0x348>
    1428:	b2 14       	cp	r11, r2
    142a:	58 f4       	brcc	.+22     	; 0x1442 <vfprintf+0x348>
    142c:	b6 01       	movw	r22, r12
    142e:	80 e2       	ldi	r24, 0x20	; 32
    1430:	90 e0       	ldi	r25, 0x00	; 0
    1432:	c4 d2       	rcall	.+1416   	; 0x19bc <fputc>
    1434:	b3 94       	inc	r11
    1436:	f8 cf       	rjmp	.-16     	; 0x1428 <vfprintf+0x32e>
    1438:	b2 14       	cp	r11, r2
    143a:	18 f4       	brcc	.+6      	; 0x1442 <vfprintf+0x348>
    143c:	2b 18       	sub	r2, r11
    143e:	02 c0       	rjmp	.+4      	; 0x1444 <vfprintf+0x34a>
    1440:	98 2c       	mov	r9, r8
    1442:	21 2c       	mov	r2, r1
    1444:	a4 fe       	sbrs	r10, 4
    1446:	0f c0       	rjmp	.+30     	; 0x1466 <vfprintf+0x36c>
    1448:	b6 01       	movw	r22, r12
    144a:	80 e3       	ldi	r24, 0x30	; 48
    144c:	90 e0       	ldi	r25, 0x00	; 0
    144e:	b6 d2       	rcall	.+1388   	; 0x19bc <fputc>
    1450:	a2 fe       	sbrs	r10, 2
    1452:	16 c0       	rjmp	.+44     	; 0x1480 <vfprintf+0x386>
    1454:	a1 fc       	sbrc	r10, 1
    1456:	03 c0       	rjmp	.+6      	; 0x145e <vfprintf+0x364>
    1458:	88 e7       	ldi	r24, 0x78	; 120
    145a:	90 e0       	ldi	r25, 0x00	; 0
    145c:	02 c0       	rjmp	.+4      	; 0x1462 <vfprintf+0x368>
    145e:	88 e5       	ldi	r24, 0x58	; 88
    1460:	90 e0       	ldi	r25, 0x00	; 0
    1462:	b6 01       	movw	r22, r12
    1464:	0c c0       	rjmp	.+24     	; 0x147e <vfprintf+0x384>
    1466:	8a 2d       	mov	r24, r10
    1468:	86 78       	andi	r24, 0x86	; 134
    146a:	51 f0       	breq	.+20     	; 0x1480 <vfprintf+0x386>
    146c:	a1 fe       	sbrs	r10, 1
    146e:	02 c0       	rjmp	.+4      	; 0x1474 <vfprintf+0x37a>
    1470:	8b e2       	ldi	r24, 0x2B	; 43
    1472:	01 c0       	rjmp	.+2      	; 0x1476 <vfprintf+0x37c>
    1474:	80 e2       	ldi	r24, 0x20	; 32
    1476:	a7 fc       	sbrc	r10, 7
    1478:	8d e2       	ldi	r24, 0x2D	; 45
    147a:	b6 01       	movw	r22, r12
    147c:	90 e0       	ldi	r25, 0x00	; 0
    147e:	9e d2       	rcall	.+1340   	; 0x19bc <fputc>
    1480:	89 14       	cp	r8, r9
    1482:	30 f4       	brcc	.+12     	; 0x1490 <vfprintf+0x396>
    1484:	b6 01       	movw	r22, r12
    1486:	80 e3       	ldi	r24, 0x30	; 48
    1488:	90 e0       	ldi	r25, 0x00	; 0
    148a:	98 d2       	rcall	.+1328   	; 0x19bc <fputc>
    148c:	9a 94       	dec	r9
    148e:	f8 cf       	rjmp	.-16     	; 0x1480 <vfprintf+0x386>
    1490:	8a 94       	dec	r8
    1492:	f3 01       	movw	r30, r6
    1494:	e8 0d       	add	r30, r8
    1496:	f1 1d       	adc	r31, r1
    1498:	80 81       	ld	r24, Z
    149a:	b6 01       	movw	r22, r12
    149c:	90 e0       	ldi	r25, 0x00	; 0
    149e:	8e d2       	rcall	.+1308   	; 0x19bc <fputc>
    14a0:	81 10       	cpse	r8, r1
    14a2:	f6 cf       	rjmp	.-20     	; 0x1490 <vfprintf+0x396>
    14a4:	22 20       	and	r2, r2
    14a6:	09 f4       	brne	.+2      	; 0x14aa <vfprintf+0x3b0>
    14a8:	4e ce       	rjmp	.-868    	; 0x1146 <vfprintf+0x4c>
    14aa:	b6 01       	movw	r22, r12
    14ac:	80 e2       	ldi	r24, 0x20	; 32
    14ae:	90 e0       	ldi	r25, 0x00	; 0
    14b0:	85 d2       	rcall	.+1290   	; 0x19bc <fputc>
    14b2:	2a 94       	dec	r2
    14b4:	f7 cf       	rjmp	.-18     	; 0x14a4 <vfprintf+0x3aa>
    14b6:	f6 01       	movw	r30, r12
    14b8:	86 81       	ldd	r24, Z+6	; 0x06
    14ba:	97 81       	ldd	r25, Z+7	; 0x07
    14bc:	02 c0       	rjmp	.+4      	; 0x14c2 <vfprintf+0x3c8>
    14be:	8f ef       	ldi	r24, 0xFF	; 255
    14c0:	9f ef       	ldi	r25, 0xFF	; 255
    14c2:	2b 96       	adiw	r28, 0x0b	; 11
    14c4:	0f b6       	in	r0, 0x3f	; 63
    14c6:	f8 94       	cli
    14c8:	de bf       	out	0x3e, r29	; 62
    14ca:	0f be       	out	0x3f, r0	; 63
    14cc:	cd bf       	out	0x3d, r28	; 61
    14ce:	df 91       	pop	r29
    14d0:	cf 91       	pop	r28
    14d2:	1f 91       	pop	r17
    14d4:	0f 91       	pop	r16
    14d6:	ff 90       	pop	r15
    14d8:	ef 90       	pop	r14
    14da:	df 90       	pop	r13
    14dc:	cf 90       	pop	r12
    14de:	bf 90       	pop	r11
    14e0:	af 90       	pop	r10
    14e2:	9f 90       	pop	r9
    14e4:	8f 90       	pop	r8
    14e6:	7f 90       	pop	r7
    14e8:	6f 90       	pop	r6
    14ea:	5f 90       	pop	r5
    14ec:	4f 90       	pop	r4
    14ee:	3f 90       	pop	r3
    14f0:	2f 90       	pop	r2
    14f2:	08 95       	ret

000014f4 <dtoa_prf>:
    14f4:	8f 92       	push	r8
    14f6:	9f 92       	push	r9
    14f8:	af 92       	push	r10
    14fa:	bf 92       	push	r11
    14fc:	cf 92       	push	r12
    14fe:	df 92       	push	r13
    1500:	ef 92       	push	r14
    1502:	ff 92       	push	r15
    1504:	0f 93       	push	r16
    1506:	1f 93       	push	r17
    1508:	cf 93       	push	r28
    150a:	df 93       	push	r29
    150c:	cd b7       	in	r28, 0x3d	; 61
    150e:	de b7       	in	r29, 0x3e	; 62
    1510:	29 97       	sbiw	r28, 0x09	; 9
    1512:	0f b6       	in	r0, 0x3f	; 63
    1514:	f8 94       	cli
    1516:	de bf       	out	0x3e, r29	; 62
    1518:	0f be       	out	0x3f, r0	; 63
    151a:	cd bf       	out	0x3d, r28	; 61
    151c:	6a 01       	movw	r12, r20
    151e:	12 2f       	mov	r17, r18
    1520:	b0 2e       	mov	r11, r16
    1522:	2b e3       	ldi	r18, 0x3B	; 59
    1524:	20 17       	cp	r18, r16
    1526:	20 f0       	brcs	.+8      	; 0x1530 <dtoa_prf+0x3c>
    1528:	ff 24       	eor	r15, r15
    152a:	f3 94       	inc	r15
    152c:	f0 0e       	add	r15, r16
    152e:	02 c0       	rjmp	.+4      	; 0x1534 <dtoa_prf+0x40>
    1530:	2c e3       	ldi	r18, 0x3C	; 60
    1532:	f2 2e       	mov	r15, r18
    1534:	0f 2d       	mov	r16, r15
    1536:	27 e0       	ldi	r18, 0x07	; 7
    1538:	ae 01       	movw	r20, r28
    153a:	4f 5f       	subi	r20, 0xFF	; 255
    153c:	5f 4f       	sbci	r21, 0xFF	; 255
    153e:	50 d1       	rcall	.+672    	; 0x17e0 <__ftoa_engine>
    1540:	bc 01       	movw	r22, r24
    1542:	49 81       	ldd	r20, Y+1	; 0x01
    1544:	84 2f       	mov	r24, r20
    1546:	89 70       	andi	r24, 0x09	; 9
    1548:	81 30       	cpi	r24, 0x01	; 1
    154a:	31 f0       	breq	.+12     	; 0x1558 <dtoa_prf+0x64>
    154c:	e1 fc       	sbrc	r14, 1
    154e:	06 c0       	rjmp	.+12     	; 0x155c <dtoa_prf+0x68>
    1550:	e0 fe       	sbrs	r14, 0
    1552:	06 c0       	rjmp	.+12     	; 0x1560 <dtoa_prf+0x6c>
    1554:	90 e2       	ldi	r25, 0x20	; 32
    1556:	05 c0       	rjmp	.+10     	; 0x1562 <dtoa_prf+0x6e>
    1558:	9d e2       	ldi	r25, 0x2D	; 45
    155a:	03 c0       	rjmp	.+6      	; 0x1562 <dtoa_prf+0x6e>
    155c:	9b e2       	ldi	r25, 0x2B	; 43
    155e:	01 c0       	rjmp	.+2      	; 0x1562 <dtoa_prf+0x6e>
    1560:	90 e0       	ldi	r25, 0x00	; 0
    1562:	5e 2d       	mov	r21, r14
    1564:	50 71       	andi	r21, 0x10	; 16
    1566:	43 ff       	sbrs	r20, 3
    1568:	3c c0       	rjmp	.+120    	; 0x15e2 <dtoa_prf+0xee>
    156a:	91 11       	cpse	r25, r1
    156c:	02 c0       	rjmp	.+4      	; 0x1572 <dtoa_prf+0x7e>
    156e:	83 e0       	ldi	r24, 0x03	; 3
    1570:	01 c0       	rjmp	.+2      	; 0x1574 <dtoa_prf+0x80>
    1572:	84 e0       	ldi	r24, 0x04	; 4
    1574:	81 17       	cp	r24, r17
    1576:	18 f4       	brcc	.+6      	; 0x157e <dtoa_prf+0x8a>
    1578:	21 2f       	mov	r18, r17
    157a:	28 1b       	sub	r18, r24
    157c:	01 c0       	rjmp	.+2      	; 0x1580 <dtoa_prf+0x8c>
    157e:	20 e0       	ldi	r18, 0x00	; 0
    1580:	51 11       	cpse	r21, r1
    1582:	0b c0       	rjmp	.+22     	; 0x159a <dtoa_prf+0xa6>
    1584:	f6 01       	movw	r30, r12
    1586:	82 2f       	mov	r24, r18
    1588:	30 e2       	ldi	r19, 0x20	; 32
    158a:	88 23       	and	r24, r24
    158c:	19 f0       	breq	.+6      	; 0x1594 <dtoa_prf+0xa0>
    158e:	31 93       	st	Z+, r19
    1590:	81 50       	subi	r24, 0x01	; 1
    1592:	fb cf       	rjmp	.-10     	; 0x158a <dtoa_prf+0x96>
    1594:	c2 0e       	add	r12, r18
    1596:	d1 1c       	adc	r13, r1
    1598:	20 e0       	ldi	r18, 0x00	; 0
    159a:	99 23       	and	r25, r25
    159c:	29 f0       	breq	.+10     	; 0x15a8 <dtoa_prf+0xb4>
    159e:	d6 01       	movw	r26, r12
    15a0:	9c 93       	st	X, r25
    15a2:	f6 01       	movw	r30, r12
    15a4:	31 96       	adiw	r30, 0x01	; 1
    15a6:	6f 01       	movw	r12, r30
    15a8:	c6 01       	movw	r24, r12
    15aa:	03 96       	adiw	r24, 0x03	; 3
    15ac:	e2 fe       	sbrs	r14, 2
    15ae:	0a c0       	rjmp	.+20     	; 0x15c4 <dtoa_prf+0xd0>
    15b0:	3e e4       	ldi	r19, 0x4E	; 78
    15b2:	d6 01       	movw	r26, r12
    15b4:	3c 93       	st	X, r19
    15b6:	41 e4       	ldi	r20, 0x41	; 65
    15b8:	11 96       	adiw	r26, 0x01	; 1
    15ba:	4c 93       	st	X, r20
    15bc:	11 97       	sbiw	r26, 0x01	; 1
    15be:	12 96       	adiw	r26, 0x02	; 2
    15c0:	3c 93       	st	X, r19
    15c2:	06 c0       	rjmp	.+12     	; 0x15d0 <dtoa_prf+0xdc>
    15c4:	3e e6       	ldi	r19, 0x6E	; 110
    15c6:	f6 01       	movw	r30, r12
    15c8:	30 83       	st	Z, r19
    15ca:	41 e6       	ldi	r20, 0x61	; 97
    15cc:	41 83       	std	Z+1, r20	; 0x01
    15ce:	32 83       	std	Z+2, r19	; 0x02
    15d0:	fc 01       	movw	r30, r24
    15d2:	32 2f       	mov	r19, r18
    15d4:	40 e2       	ldi	r20, 0x20	; 32
    15d6:	33 23       	and	r19, r19
    15d8:	09 f4       	brne	.+2      	; 0x15dc <dtoa_prf+0xe8>
    15da:	42 c0       	rjmp	.+132    	; 0x1660 <dtoa_prf+0x16c>
    15dc:	41 93       	st	Z+, r20
    15de:	31 50       	subi	r19, 0x01	; 1
    15e0:	fa cf       	rjmp	.-12     	; 0x15d6 <dtoa_prf+0xe2>
    15e2:	42 ff       	sbrs	r20, 2
    15e4:	44 c0       	rjmp	.+136    	; 0x166e <dtoa_prf+0x17a>
    15e6:	91 11       	cpse	r25, r1
    15e8:	02 c0       	rjmp	.+4      	; 0x15ee <dtoa_prf+0xfa>
    15ea:	83 e0       	ldi	r24, 0x03	; 3
    15ec:	01 c0       	rjmp	.+2      	; 0x15f0 <dtoa_prf+0xfc>
    15ee:	84 e0       	ldi	r24, 0x04	; 4
    15f0:	81 17       	cp	r24, r17
    15f2:	18 f4       	brcc	.+6      	; 0x15fa <dtoa_prf+0x106>
    15f4:	21 2f       	mov	r18, r17
    15f6:	28 1b       	sub	r18, r24
    15f8:	01 c0       	rjmp	.+2      	; 0x15fc <dtoa_prf+0x108>
    15fa:	20 e0       	ldi	r18, 0x00	; 0
    15fc:	51 11       	cpse	r21, r1
    15fe:	0b c0       	rjmp	.+22     	; 0x1616 <dtoa_prf+0x122>
    1600:	f6 01       	movw	r30, r12
    1602:	82 2f       	mov	r24, r18
    1604:	30 e2       	ldi	r19, 0x20	; 32
    1606:	88 23       	and	r24, r24
    1608:	19 f0       	breq	.+6      	; 0x1610 <dtoa_prf+0x11c>
    160a:	31 93       	st	Z+, r19
    160c:	81 50       	subi	r24, 0x01	; 1
    160e:	fb cf       	rjmp	.-10     	; 0x1606 <dtoa_prf+0x112>
    1610:	c2 0e       	add	r12, r18
    1612:	d1 1c       	adc	r13, r1
    1614:	20 e0       	ldi	r18, 0x00	; 0
    1616:	99 23       	and	r25, r25
    1618:	29 f0       	breq	.+10     	; 0x1624 <dtoa_prf+0x130>
    161a:	d6 01       	movw	r26, r12
    161c:	9c 93       	st	X, r25
    161e:	f6 01       	movw	r30, r12
    1620:	31 96       	adiw	r30, 0x01	; 1
    1622:	6f 01       	movw	r12, r30
    1624:	c6 01       	movw	r24, r12
    1626:	03 96       	adiw	r24, 0x03	; 3
    1628:	e2 fe       	sbrs	r14, 2
    162a:	0b c0       	rjmp	.+22     	; 0x1642 <dtoa_prf+0x14e>
    162c:	39 e4       	ldi	r19, 0x49	; 73
    162e:	d6 01       	movw	r26, r12
    1630:	3c 93       	st	X, r19
    1632:	3e e4       	ldi	r19, 0x4E	; 78
    1634:	11 96       	adiw	r26, 0x01	; 1
    1636:	3c 93       	st	X, r19
    1638:	11 97       	sbiw	r26, 0x01	; 1
    163a:	36 e4       	ldi	r19, 0x46	; 70
    163c:	12 96       	adiw	r26, 0x02	; 2
    163e:	3c 93       	st	X, r19
    1640:	07 c0       	rjmp	.+14     	; 0x1650 <dtoa_prf+0x15c>
    1642:	39 e6       	ldi	r19, 0x69	; 105
    1644:	f6 01       	movw	r30, r12
    1646:	30 83       	st	Z, r19
    1648:	3e e6       	ldi	r19, 0x6E	; 110
    164a:	31 83       	std	Z+1, r19	; 0x01
    164c:	36 e6       	ldi	r19, 0x66	; 102
    164e:	32 83       	std	Z+2, r19	; 0x02
    1650:	fc 01       	movw	r30, r24
    1652:	32 2f       	mov	r19, r18
    1654:	40 e2       	ldi	r20, 0x20	; 32
    1656:	33 23       	and	r19, r19
    1658:	19 f0       	breq	.+6      	; 0x1660 <dtoa_prf+0x16c>
    165a:	41 93       	st	Z+, r20
    165c:	31 50       	subi	r19, 0x01	; 1
    165e:	fb cf       	rjmp	.-10     	; 0x1656 <dtoa_prf+0x162>
    1660:	fc 01       	movw	r30, r24
    1662:	e2 0f       	add	r30, r18
    1664:	f1 1d       	adc	r31, r1
    1666:	10 82       	st	Z, r1
    1668:	8e ef       	ldi	r24, 0xFE	; 254
    166a:	9f ef       	ldi	r25, 0xFF	; 255
    166c:	a6 c0       	rjmp	.+332    	; 0x17ba <dtoa_prf+0x2c6>
    166e:	21 e0       	ldi	r18, 0x01	; 1
    1670:	30 e0       	ldi	r19, 0x00	; 0
    1672:	91 11       	cpse	r25, r1
    1674:	02 c0       	rjmp	.+4      	; 0x167a <dtoa_prf+0x186>
    1676:	20 e0       	ldi	r18, 0x00	; 0
    1678:	30 e0       	ldi	r19, 0x00	; 0
    167a:	16 16       	cp	r1, r22
    167c:	17 06       	cpc	r1, r23
    167e:	1c f4       	brge	.+6      	; 0x1686 <dtoa_prf+0x192>
    1680:	fb 01       	movw	r30, r22
    1682:	31 96       	adiw	r30, 0x01	; 1
    1684:	02 c0       	rjmp	.+4      	; 0x168a <dtoa_prf+0x196>
    1686:	e1 e0       	ldi	r30, 0x01	; 1
    1688:	f0 e0       	ldi	r31, 0x00	; 0
    168a:	2e 0f       	add	r18, r30
    168c:	3f 1f       	adc	r19, r31
    168e:	bb 20       	and	r11, r11
    1690:	21 f0       	breq	.+8      	; 0x169a <dtoa_prf+0x1a6>
    1692:	eb 2d       	mov	r30, r11
    1694:	f0 e0       	ldi	r31, 0x00	; 0
    1696:	31 96       	adiw	r30, 0x01	; 1
    1698:	02 c0       	rjmp	.+4      	; 0x169e <dtoa_prf+0x1aa>
    169a:	e0 e0       	ldi	r30, 0x00	; 0
    169c:	f0 e0       	ldi	r31, 0x00	; 0
    169e:	2e 0f       	add	r18, r30
    16a0:	3f 1f       	adc	r19, r31
    16a2:	e1 2f       	mov	r30, r17
    16a4:	f0 e0       	ldi	r31, 0x00	; 0
    16a6:	2e 17       	cp	r18, r30
    16a8:	3f 07       	cpc	r19, r31
    16aa:	1c f4       	brge	.+6      	; 0x16b2 <dtoa_prf+0x1be>
    16ac:	12 1b       	sub	r17, r18
    16ae:	21 2f       	mov	r18, r17
    16b0:	01 c0       	rjmp	.+2      	; 0x16b4 <dtoa_prf+0x1c0>
    16b2:	20 e0       	ldi	r18, 0x00	; 0
    16b4:	8e 2d       	mov	r24, r14
    16b6:	88 71       	andi	r24, 0x18	; 24
    16b8:	59 f4       	brne	.+22     	; 0x16d0 <dtoa_prf+0x1dc>
    16ba:	f6 01       	movw	r30, r12
    16bc:	82 2f       	mov	r24, r18
    16be:	30 e2       	ldi	r19, 0x20	; 32
    16c0:	88 23       	and	r24, r24
    16c2:	19 f0       	breq	.+6      	; 0x16ca <dtoa_prf+0x1d6>
    16c4:	31 93       	st	Z+, r19
    16c6:	81 50       	subi	r24, 0x01	; 1
    16c8:	fb cf       	rjmp	.-10     	; 0x16c0 <dtoa_prf+0x1cc>
    16ca:	c2 0e       	add	r12, r18
    16cc:	d1 1c       	adc	r13, r1
    16ce:	20 e0       	ldi	r18, 0x00	; 0
    16d0:	99 23       	and	r25, r25
    16d2:	29 f0       	breq	.+10     	; 0x16de <dtoa_prf+0x1ea>
    16d4:	d6 01       	movw	r26, r12
    16d6:	9c 93       	st	X, r25
    16d8:	f6 01       	movw	r30, r12
    16da:	31 96       	adiw	r30, 0x01	; 1
    16dc:	6f 01       	movw	r12, r30
    16de:	51 11       	cpse	r21, r1
    16e0:	0b c0       	rjmp	.+22     	; 0x16f8 <dtoa_prf+0x204>
    16e2:	f6 01       	movw	r30, r12
    16e4:	82 2f       	mov	r24, r18
    16e6:	90 e3       	ldi	r25, 0x30	; 48
    16e8:	88 23       	and	r24, r24
    16ea:	19 f0       	breq	.+6      	; 0x16f2 <dtoa_prf+0x1fe>
    16ec:	91 93       	st	Z+, r25
    16ee:	81 50       	subi	r24, 0x01	; 1
    16f0:	fb cf       	rjmp	.-10     	; 0x16e8 <dtoa_prf+0x1f4>
    16f2:	c2 0e       	add	r12, r18
    16f4:	d1 1c       	adc	r13, r1
    16f6:	20 e0       	ldi	r18, 0x00	; 0
    16f8:	0f 2d       	mov	r16, r15
    16fa:	06 0f       	add	r16, r22
    16fc:	9a 81       	ldd	r25, Y+2	; 0x02
    16fe:	34 2f       	mov	r19, r20
    1700:	30 71       	andi	r19, 0x10	; 16
    1702:	44 ff       	sbrs	r20, 4
    1704:	03 c0       	rjmp	.+6      	; 0x170c <dtoa_prf+0x218>
    1706:	91 33       	cpi	r25, 0x31	; 49
    1708:	09 f4       	brne	.+2      	; 0x170c <dtoa_prf+0x218>
    170a:	01 50       	subi	r16, 0x01	; 1
    170c:	10 16       	cp	r1, r16
    170e:	24 f4       	brge	.+8      	; 0x1718 <dtoa_prf+0x224>
    1710:	09 30       	cpi	r16, 0x09	; 9
    1712:	18 f0       	brcs	.+6      	; 0x171a <dtoa_prf+0x226>
    1714:	08 e0       	ldi	r16, 0x08	; 8
    1716:	01 c0       	rjmp	.+2      	; 0x171a <dtoa_prf+0x226>
    1718:	01 e0       	ldi	r16, 0x01	; 1
    171a:	ab 01       	movw	r20, r22
    171c:	77 ff       	sbrs	r23, 7
    171e:	02 c0       	rjmp	.+4      	; 0x1724 <dtoa_prf+0x230>
    1720:	40 e0       	ldi	r20, 0x00	; 0
    1722:	50 e0       	ldi	r21, 0x00	; 0
    1724:	fb 01       	movw	r30, r22
    1726:	e4 1b       	sub	r30, r20
    1728:	f5 0b       	sbc	r31, r21
    172a:	a1 e0       	ldi	r26, 0x01	; 1
    172c:	b0 e0       	ldi	r27, 0x00	; 0
    172e:	ac 0f       	add	r26, r28
    1730:	bd 1f       	adc	r27, r29
    1732:	ea 0f       	add	r30, r26
    1734:	fb 1f       	adc	r31, r27
    1736:	8e e2       	ldi	r24, 0x2E	; 46
    1738:	a8 2e       	mov	r10, r24
    173a:	4b 01       	movw	r8, r22
    173c:	80 1a       	sub	r8, r16
    173e:	91 08       	sbc	r9, r1
    1740:	0b 2d       	mov	r16, r11
    1742:	10 e0       	ldi	r17, 0x00	; 0
    1744:	11 95       	neg	r17
    1746:	01 95       	neg	r16
    1748:	11 09       	sbc	r17, r1
    174a:	4f 3f       	cpi	r20, 0xFF	; 255
    174c:	bf ef       	ldi	r27, 0xFF	; 255
    174e:	5b 07       	cpc	r21, r27
    1750:	21 f4       	brne	.+8      	; 0x175a <dtoa_prf+0x266>
    1752:	d6 01       	movw	r26, r12
    1754:	ac 92       	st	X, r10
    1756:	11 96       	adiw	r26, 0x01	; 1
    1758:	6d 01       	movw	r12, r26
    175a:	64 17       	cp	r22, r20
    175c:	75 07       	cpc	r23, r21
    175e:	2c f0       	brlt	.+10     	; 0x176a <dtoa_prf+0x276>
    1760:	84 16       	cp	r8, r20
    1762:	95 06       	cpc	r9, r21
    1764:	14 f4       	brge	.+4      	; 0x176a <dtoa_prf+0x276>
    1766:	81 81       	ldd	r24, Z+1	; 0x01
    1768:	01 c0       	rjmp	.+2      	; 0x176c <dtoa_prf+0x278>
    176a:	80 e3       	ldi	r24, 0x30	; 48
    176c:	41 50       	subi	r20, 0x01	; 1
    176e:	51 09       	sbc	r21, r1
    1770:	31 96       	adiw	r30, 0x01	; 1
    1772:	d6 01       	movw	r26, r12
    1774:	11 96       	adiw	r26, 0x01	; 1
    1776:	7d 01       	movw	r14, r26
    1778:	40 17       	cp	r20, r16
    177a:	51 07       	cpc	r21, r17
    177c:	24 f0       	brlt	.+8      	; 0x1786 <dtoa_prf+0x292>
    177e:	d6 01       	movw	r26, r12
    1780:	8c 93       	st	X, r24
    1782:	67 01       	movw	r12, r14
    1784:	e2 cf       	rjmp	.-60     	; 0x174a <dtoa_prf+0x256>
    1786:	64 17       	cp	r22, r20
    1788:	75 07       	cpc	r23, r21
    178a:	39 f4       	brne	.+14     	; 0x179a <dtoa_prf+0x2a6>
    178c:	96 33       	cpi	r25, 0x36	; 54
    178e:	20 f4       	brcc	.+8      	; 0x1798 <dtoa_prf+0x2a4>
    1790:	95 33       	cpi	r25, 0x35	; 53
    1792:	19 f4       	brne	.+6      	; 0x179a <dtoa_prf+0x2a6>
    1794:	31 11       	cpse	r19, r1
    1796:	01 c0       	rjmp	.+2      	; 0x179a <dtoa_prf+0x2a6>
    1798:	81 e3       	ldi	r24, 0x31	; 49
    179a:	f6 01       	movw	r30, r12
    179c:	80 83       	st	Z, r24
    179e:	f7 01       	movw	r30, r14
    17a0:	82 2f       	mov	r24, r18
    17a2:	90 e2       	ldi	r25, 0x20	; 32
    17a4:	88 23       	and	r24, r24
    17a6:	19 f0       	breq	.+6      	; 0x17ae <dtoa_prf+0x2ba>
    17a8:	91 93       	st	Z+, r25
    17aa:	81 50       	subi	r24, 0x01	; 1
    17ac:	fb cf       	rjmp	.-10     	; 0x17a4 <dtoa_prf+0x2b0>
    17ae:	f7 01       	movw	r30, r14
    17b0:	e2 0f       	add	r30, r18
    17b2:	f1 1d       	adc	r31, r1
    17b4:	10 82       	st	Z, r1
    17b6:	80 e0       	ldi	r24, 0x00	; 0
    17b8:	90 e0       	ldi	r25, 0x00	; 0
    17ba:	29 96       	adiw	r28, 0x09	; 9
    17bc:	0f b6       	in	r0, 0x3f	; 63
    17be:	f8 94       	cli
    17c0:	de bf       	out	0x3e, r29	; 62
    17c2:	0f be       	out	0x3f, r0	; 63
    17c4:	cd bf       	out	0x3d, r28	; 61
    17c6:	df 91       	pop	r29
    17c8:	cf 91       	pop	r28
    17ca:	1f 91       	pop	r17
    17cc:	0f 91       	pop	r16
    17ce:	ff 90       	pop	r15
    17d0:	ef 90       	pop	r14
    17d2:	df 90       	pop	r13
    17d4:	cf 90       	pop	r12
    17d6:	bf 90       	pop	r11
    17d8:	af 90       	pop	r10
    17da:	9f 90       	pop	r9
    17dc:	8f 90       	pop	r8
    17de:	08 95       	ret

000017e0 <__ftoa_engine>:
    17e0:	28 30       	cpi	r18, 0x08	; 8
    17e2:	08 f0       	brcs	.+2      	; 0x17e6 <__ftoa_engine+0x6>
    17e4:	27 e0       	ldi	r18, 0x07	; 7
    17e6:	33 27       	eor	r19, r19
    17e8:	da 01       	movw	r26, r20
    17ea:	99 0f       	add	r25, r25
    17ec:	31 1d       	adc	r19, r1
    17ee:	87 fd       	sbrc	r24, 7
    17f0:	91 60       	ori	r25, 0x01	; 1
    17f2:	00 96       	adiw	r24, 0x00	; 0
    17f4:	61 05       	cpc	r22, r1
    17f6:	71 05       	cpc	r23, r1
    17f8:	39 f4       	brne	.+14     	; 0x1808 <__ftoa_engine+0x28>
    17fa:	32 60       	ori	r19, 0x02	; 2
    17fc:	2e 5f       	subi	r18, 0xFE	; 254
    17fe:	3d 93       	st	X+, r19
    1800:	30 e3       	ldi	r19, 0x30	; 48
    1802:	2a 95       	dec	r18
    1804:	e1 f7       	brne	.-8      	; 0x17fe <__ftoa_engine+0x1e>
    1806:	08 95       	ret
    1808:	9f 3f       	cpi	r25, 0xFF	; 255
    180a:	30 f0       	brcs	.+12     	; 0x1818 <__ftoa_engine+0x38>
    180c:	80 38       	cpi	r24, 0x80	; 128
    180e:	71 05       	cpc	r23, r1
    1810:	61 05       	cpc	r22, r1
    1812:	09 f0       	breq	.+2      	; 0x1816 <__ftoa_engine+0x36>
    1814:	3c 5f       	subi	r19, 0xFC	; 252
    1816:	3c 5f       	subi	r19, 0xFC	; 252
    1818:	3d 93       	st	X+, r19
    181a:	91 30       	cpi	r25, 0x01	; 1
    181c:	08 f0       	brcs	.+2      	; 0x1820 <__ftoa_engine+0x40>
    181e:	80 68       	ori	r24, 0x80	; 128
    1820:	91 1d       	adc	r25, r1
    1822:	df 93       	push	r29
    1824:	cf 93       	push	r28
    1826:	1f 93       	push	r17
    1828:	0f 93       	push	r16
    182a:	ff 92       	push	r15
    182c:	ef 92       	push	r14
    182e:	19 2f       	mov	r17, r25
    1830:	98 7f       	andi	r25, 0xF8	; 248
    1832:	96 95       	lsr	r25
    1834:	e9 2f       	mov	r30, r25
    1836:	96 95       	lsr	r25
    1838:	96 95       	lsr	r25
    183a:	e9 0f       	add	r30, r25
    183c:	ff 27       	eor	r31, r31
    183e:	e4 59       	subi	r30, 0x94	; 148
    1840:	fe 4f       	sbci	r31, 0xFE	; 254
    1842:	99 27       	eor	r25, r25
    1844:	33 27       	eor	r19, r19
    1846:	ee 24       	eor	r14, r14
    1848:	ff 24       	eor	r15, r15
    184a:	a7 01       	movw	r20, r14
    184c:	e7 01       	movw	r28, r14
    184e:	05 90       	lpm	r0, Z+
    1850:	08 94       	sec
    1852:	07 94       	ror	r0
    1854:	28 f4       	brcc	.+10     	; 0x1860 <__ftoa_engine+0x80>
    1856:	36 0f       	add	r19, r22
    1858:	e7 1e       	adc	r14, r23
    185a:	f8 1e       	adc	r15, r24
    185c:	49 1f       	adc	r20, r25
    185e:	51 1d       	adc	r21, r1
    1860:	66 0f       	add	r22, r22
    1862:	77 1f       	adc	r23, r23
    1864:	88 1f       	adc	r24, r24
    1866:	99 1f       	adc	r25, r25
    1868:	06 94       	lsr	r0
    186a:	a1 f7       	brne	.-24     	; 0x1854 <__ftoa_engine+0x74>
    186c:	05 90       	lpm	r0, Z+
    186e:	07 94       	ror	r0
    1870:	28 f4       	brcc	.+10     	; 0x187c <__ftoa_engine+0x9c>
    1872:	e7 0e       	add	r14, r23
    1874:	f8 1e       	adc	r15, r24
    1876:	49 1f       	adc	r20, r25
    1878:	56 1f       	adc	r21, r22
    187a:	c1 1d       	adc	r28, r1
    187c:	77 0f       	add	r23, r23
    187e:	88 1f       	adc	r24, r24
    1880:	99 1f       	adc	r25, r25
    1882:	66 1f       	adc	r22, r22
    1884:	06 94       	lsr	r0
    1886:	a1 f7       	brne	.-24     	; 0x1870 <__ftoa_engine+0x90>
    1888:	05 90       	lpm	r0, Z+
    188a:	07 94       	ror	r0
    188c:	28 f4       	brcc	.+10     	; 0x1898 <__ftoa_engine+0xb8>
    188e:	f8 0e       	add	r15, r24
    1890:	49 1f       	adc	r20, r25
    1892:	56 1f       	adc	r21, r22
    1894:	c7 1f       	adc	r28, r23
    1896:	d1 1d       	adc	r29, r1
    1898:	88 0f       	add	r24, r24
    189a:	99 1f       	adc	r25, r25
    189c:	66 1f       	adc	r22, r22
    189e:	77 1f       	adc	r23, r23
    18a0:	06 94       	lsr	r0
    18a2:	a1 f7       	brne	.-24     	; 0x188c <__ftoa_engine+0xac>
    18a4:	05 90       	lpm	r0, Z+
    18a6:	07 94       	ror	r0
    18a8:	20 f4       	brcc	.+8      	; 0x18b2 <__ftoa_engine+0xd2>
    18aa:	49 0f       	add	r20, r25
    18ac:	56 1f       	adc	r21, r22
    18ae:	c7 1f       	adc	r28, r23
    18b0:	d8 1f       	adc	r29, r24
    18b2:	99 0f       	add	r25, r25
    18b4:	66 1f       	adc	r22, r22
    18b6:	77 1f       	adc	r23, r23
    18b8:	88 1f       	adc	r24, r24
    18ba:	06 94       	lsr	r0
    18bc:	a9 f7       	brne	.-22     	; 0x18a8 <__ftoa_engine+0xc8>
    18be:	84 91       	lpm	r24, Z
    18c0:	10 95       	com	r17
    18c2:	17 70       	andi	r17, 0x07	; 7
    18c4:	41 f0       	breq	.+16     	; 0x18d6 <__ftoa_engine+0xf6>
    18c6:	d6 95       	lsr	r29
    18c8:	c7 95       	ror	r28
    18ca:	57 95       	ror	r21
    18cc:	47 95       	ror	r20
    18ce:	f7 94       	ror	r15
    18d0:	e7 94       	ror	r14
    18d2:	1a 95       	dec	r17
    18d4:	c1 f7       	brne	.-16     	; 0x18c6 <__ftoa_engine+0xe6>
    18d6:	e2 e1       	ldi	r30, 0x12	; 18
    18d8:	f1 e0       	ldi	r31, 0x01	; 1
    18da:	68 94       	set
    18dc:	15 90       	lpm	r1, Z+
    18de:	15 91       	lpm	r17, Z+
    18e0:	35 91       	lpm	r19, Z+
    18e2:	65 91       	lpm	r22, Z+
    18e4:	95 91       	lpm	r25, Z+
    18e6:	05 90       	lpm	r0, Z+
    18e8:	7f e2       	ldi	r23, 0x2F	; 47
    18ea:	73 95       	inc	r23
    18ec:	e1 18       	sub	r14, r1
    18ee:	f1 0a       	sbc	r15, r17
    18f0:	43 0b       	sbc	r20, r19
    18f2:	56 0b       	sbc	r21, r22
    18f4:	c9 0b       	sbc	r28, r25
    18f6:	d0 09       	sbc	r29, r0
    18f8:	c0 f7       	brcc	.-16     	; 0x18ea <__ftoa_engine+0x10a>
    18fa:	e1 0c       	add	r14, r1
    18fc:	f1 1e       	adc	r15, r17
    18fe:	43 1f       	adc	r20, r19
    1900:	56 1f       	adc	r21, r22
    1902:	c9 1f       	adc	r28, r25
    1904:	d0 1d       	adc	r29, r0
    1906:	7e f4       	brtc	.+30     	; 0x1926 <__ftoa_engine+0x146>
    1908:	70 33       	cpi	r23, 0x30	; 48
    190a:	11 f4       	brne	.+4      	; 0x1910 <__ftoa_engine+0x130>
    190c:	8a 95       	dec	r24
    190e:	e6 cf       	rjmp	.-52     	; 0x18dc <__ftoa_engine+0xfc>
    1910:	e8 94       	clt
    1912:	01 50       	subi	r16, 0x01	; 1
    1914:	30 f0       	brcs	.+12     	; 0x1922 <__ftoa_engine+0x142>
    1916:	08 0f       	add	r16, r24
    1918:	0a f4       	brpl	.+2      	; 0x191c <__ftoa_engine+0x13c>
    191a:	00 27       	eor	r16, r16
    191c:	02 17       	cp	r16, r18
    191e:	08 f4       	brcc	.+2      	; 0x1922 <__ftoa_engine+0x142>
    1920:	20 2f       	mov	r18, r16
    1922:	23 95       	inc	r18
    1924:	02 2f       	mov	r16, r18
    1926:	7a 33       	cpi	r23, 0x3A	; 58
    1928:	28 f0       	brcs	.+10     	; 0x1934 <__ftoa_engine+0x154>
    192a:	79 e3       	ldi	r23, 0x39	; 57
    192c:	7d 93       	st	X+, r23
    192e:	2a 95       	dec	r18
    1930:	e9 f7       	brne	.-6      	; 0x192c <__ftoa_engine+0x14c>
    1932:	10 c0       	rjmp	.+32     	; 0x1954 <__ftoa_engine+0x174>
    1934:	7d 93       	st	X+, r23
    1936:	2a 95       	dec	r18
    1938:	89 f6       	brne	.-94     	; 0x18dc <__ftoa_engine+0xfc>
    193a:	06 94       	lsr	r0
    193c:	97 95       	ror	r25
    193e:	67 95       	ror	r22
    1940:	37 95       	ror	r19
    1942:	17 95       	ror	r17
    1944:	17 94       	ror	r1
    1946:	e1 18       	sub	r14, r1
    1948:	f1 0a       	sbc	r15, r17
    194a:	43 0b       	sbc	r20, r19
    194c:	56 0b       	sbc	r21, r22
    194e:	c9 0b       	sbc	r28, r25
    1950:	d0 09       	sbc	r29, r0
    1952:	98 f0       	brcs	.+38     	; 0x197a <__ftoa_engine+0x19a>
    1954:	23 95       	inc	r18
    1956:	7e 91       	ld	r23, -X
    1958:	73 95       	inc	r23
    195a:	7a 33       	cpi	r23, 0x3A	; 58
    195c:	08 f0       	brcs	.+2      	; 0x1960 <__ftoa_engine+0x180>
    195e:	70 e3       	ldi	r23, 0x30	; 48
    1960:	7c 93       	st	X, r23
    1962:	20 13       	cpse	r18, r16
    1964:	b8 f7       	brcc	.-18     	; 0x1954 <__ftoa_engine+0x174>
    1966:	7e 91       	ld	r23, -X
    1968:	70 61       	ori	r23, 0x10	; 16
    196a:	7d 93       	st	X+, r23
    196c:	30 f0       	brcs	.+12     	; 0x197a <__ftoa_engine+0x19a>
    196e:	83 95       	inc	r24
    1970:	71 e3       	ldi	r23, 0x31	; 49
    1972:	7d 93       	st	X+, r23
    1974:	70 e3       	ldi	r23, 0x30	; 48
    1976:	2a 95       	dec	r18
    1978:	e1 f7       	brne	.-8      	; 0x1972 <__ftoa_engine+0x192>
    197a:	11 24       	eor	r1, r1
    197c:	ef 90       	pop	r14
    197e:	ff 90       	pop	r15
    1980:	0f 91       	pop	r16
    1982:	1f 91       	pop	r17
    1984:	cf 91       	pop	r28
    1986:	df 91       	pop	r29
    1988:	99 27       	eor	r25, r25
    198a:	87 fd       	sbrc	r24, 7
    198c:	90 95       	com	r25
    198e:	08 95       	ret

00001990 <strnlen_P>:
    1990:	fc 01       	movw	r30, r24
    1992:	05 90       	lpm	r0, Z+
    1994:	61 50       	subi	r22, 0x01	; 1
    1996:	70 40       	sbci	r23, 0x00	; 0
    1998:	01 10       	cpse	r0, r1
    199a:	d8 f7       	brcc	.-10     	; 0x1992 <strnlen_P+0x2>
    199c:	80 95       	com	r24
    199e:	90 95       	com	r25
    19a0:	8e 0f       	add	r24, r30
    19a2:	9f 1f       	adc	r25, r31
    19a4:	08 95       	ret

000019a6 <strnlen>:
    19a6:	fc 01       	movw	r30, r24
    19a8:	61 50       	subi	r22, 0x01	; 1
    19aa:	70 40       	sbci	r23, 0x00	; 0
    19ac:	01 90       	ld	r0, Z+
    19ae:	01 10       	cpse	r0, r1
    19b0:	d8 f7       	brcc	.-10     	; 0x19a8 <strnlen+0x2>
    19b2:	80 95       	com	r24
    19b4:	90 95       	com	r25
    19b6:	8e 0f       	add	r24, r30
    19b8:	9f 1f       	adc	r25, r31
    19ba:	08 95       	ret

000019bc <fputc>:
    19bc:	0f 93       	push	r16
    19be:	1f 93       	push	r17
    19c0:	cf 93       	push	r28
    19c2:	df 93       	push	r29
    19c4:	fb 01       	movw	r30, r22
    19c6:	23 81       	ldd	r18, Z+3	; 0x03
    19c8:	21 fd       	sbrc	r18, 1
    19ca:	03 c0       	rjmp	.+6      	; 0x19d2 <fputc+0x16>
    19cc:	8f ef       	ldi	r24, 0xFF	; 255
    19ce:	9f ef       	ldi	r25, 0xFF	; 255
    19d0:	2c c0       	rjmp	.+88     	; 0x1a2a <fputc+0x6e>
    19d2:	22 ff       	sbrs	r18, 2
    19d4:	16 c0       	rjmp	.+44     	; 0x1a02 <fputc+0x46>
    19d6:	46 81       	ldd	r20, Z+6	; 0x06
    19d8:	57 81       	ldd	r21, Z+7	; 0x07
    19da:	24 81       	ldd	r18, Z+4	; 0x04
    19dc:	35 81       	ldd	r19, Z+5	; 0x05
    19de:	42 17       	cp	r20, r18
    19e0:	53 07       	cpc	r21, r19
    19e2:	44 f4       	brge	.+16     	; 0x19f4 <fputc+0x38>
    19e4:	a0 81       	ld	r26, Z
    19e6:	b1 81       	ldd	r27, Z+1	; 0x01
    19e8:	9d 01       	movw	r18, r26
    19ea:	2f 5f       	subi	r18, 0xFF	; 255
    19ec:	3f 4f       	sbci	r19, 0xFF	; 255
    19ee:	31 83       	std	Z+1, r19	; 0x01
    19f0:	20 83       	st	Z, r18
    19f2:	8c 93       	st	X, r24
    19f4:	26 81       	ldd	r18, Z+6	; 0x06
    19f6:	37 81       	ldd	r19, Z+7	; 0x07
    19f8:	2f 5f       	subi	r18, 0xFF	; 255
    19fa:	3f 4f       	sbci	r19, 0xFF	; 255
    19fc:	37 83       	std	Z+7, r19	; 0x07
    19fe:	26 83       	std	Z+6, r18	; 0x06
    1a00:	14 c0       	rjmp	.+40     	; 0x1a2a <fputc+0x6e>
    1a02:	8b 01       	movw	r16, r22
    1a04:	ec 01       	movw	r28, r24
    1a06:	fb 01       	movw	r30, r22
    1a08:	00 84       	ldd	r0, Z+8	; 0x08
    1a0a:	f1 85       	ldd	r31, Z+9	; 0x09
    1a0c:	e0 2d       	mov	r30, r0
    1a0e:	19 95       	eicall
    1a10:	89 2b       	or	r24, r25
    1a12:	e1 f6       	brne	.-72     	; 0x19cc <fputc+0x10>
    1a14:	d8 01       	movw	r26, r16
    1a16:	16 96       	adiw	r26, 0x06	; 6
    1a18:	8d 91       	ld	r24, X+
    1a1a:	9c 91       	ld	r25, X
    1a1c:	17 97       	sbiw	r26, 0x07	; 7
    1a1e:	01 96       	adiw	r24, 0x01	; 1
    1a20:	17 96       	adiw	r26, 0x07	; 7
    1a22:	9c 93       	st	X, r25
    1a24:	8e 93       	st	-X, r24
    1a26:	16 97       	sbiw	r26, 0x06	; 6
    1a28:	ce 01       	movw	r24, r28
    1a2a:	df 91       	pop	r29
    1a2c:	cf 91       	pop	r28
    1a2e:	1f 91       	pop	r17
    1a30:	0f 91       	pop	r16
    1a32:	08 95       	ret

00001a34 <__ultoa_invert>:
    1a34:	fa 01       	movw	r30, r20
    1a36:	aa 27       	eor	r26, r26
    1a38:	28 30       	cpi	r18, 0x08	; 8
    1a3a:	51 f1       	breq	.+84     	; 0x1a90 <__ultoa_invert+0x5c>
    1a3c:	20 31       	cpi	r18, 0x10	; 16
    1a3e:	81 f1       	breq	.+96     	; 0x1aa0 <__ultoa_invert+0x6c>
    1a40:	e8 94       	clt
    1a42:	6f 93       	push	r22
    1a44:	6e 7f       	andi	r22, 0xFE	; 254
    1a46:	6e 5f       	subi	r22, 0xFE	; 254
    1a48:	7f 4f       	sbci	r23, 0xFF	; 255
    1a4a:	8f 4f       	sbci	r24, 0xFF	; 255
    1a4c:	9f 4f       	sbci	r25, 0xFF	; 255
    1a4e:	af 4f       	sbci	r26, 0xFF	; 255
    1a50:	b1 e0       	ldi	r27, 0x01	; 1
    1a52:	3e d0       	rcall	.+124    	; 0x1ad0 <__ultoa_invert+0x9c>
    1a54:	b4 e0       	ldi	r27, 0x04	; 4
    1a56:	3c d0       	rcall	.+120    	; 0x1ad0 <__ultoa_invert+0x9c>
    1a58:	67 0f       	add	r22, r23
    1a5a:	78 1f       	adc	r23, r24
    1a5c:	89 1f       	adc	r24, r25
    1a5e:	9a 1f       	adc	r25, r26
    1a60:	a1 1d       	adc	r26, r1
    1a62:	68 0f       	add	r22, r24
    1a64:	79 1f       	adc	r23, r25
    1a66:	8a 1f       	adc	r24, r26
    1a68:	91 1d       	adc	r25, r1
    1a6a:	a1 1d       	adc	r26, r1
    1a6c:	6a 0f       	add	r22, r26
    1a6e:	71 1d       	adc	r23, r1
    1a70:	81 1d       	adc	r24, r1
    1a72:	91 1d       	adc	r25, r1
    1a74:	a1 1d       	adc	r26, r1
    1a76:	20 d0       	rcall	.+64     	; 0x1ab8 <__ultoa_invert+0x84>
    1a78:	09 f4       	brne	.+2      	; 0x1a7c <__ultoa_invert+0x48>
    1a7a:	68 94       	set
    1a7c:	3f 91       	pop	r19
    1a7e:	2a e0       	ldi	r18, 0x0A	; 10
    1a80:	26 9f       	mul	r18, r22
    1a82:	11 24       	eor	r1, r1
    1a84:	30 19       	sub	r19, r0
    1a86:	30 5d       	subi	r19, 0xD0	; 208
    1a88:	31 93       	st	Z+, r19
    1a8a:	de f6       	brtc	.-74     	; 0x1a42 <__ultoa_invert+0xe>
    1a8c:	cf 01       	movw	r24, r30
    1a8e:	08 95       	ret
    1a90:	46 2f       	mov	r20, r22
    1a92:	47 70       	andi	r20, 0x07	; 7
    1a94:	40 5d       	subi	r20, 0xD0	; 208
    1a96:	41 93       	st	Z+, r20
    1a98:	b3 e0       	ldi	r27, 0x03	; 3
    1a9a:	0f d0       	rcall	.+30     	; 0x1aba <__ultoa_invert+0x86>
    1a9c:	c9 f7       	brne	.-14     	; 0x1a90 <__ultoa_invert+0x5c>
    1a9e:	f6 cf       	rjmp	.-20     	; 0x1a8c <__ultoa_invert+0x58>
    1aa0:	46 2f       	mov	r20, r22
    1aa2:	4f 70       	andi	r20, 0x0F	; 15
    1aa4:	40 5d       	subi	r20, 0xD0	; 208
    1aa6:	4a 33       	cpi	r20, 0x3A	; 58
    1aa8:	18 f0       	brcs	.+6      	; 0x1ab0 <__ultoa_invert+0x7c>
    1aaa:	49 5d       	subi	r20, 0xD9	; 217
    1aac:	31 fd       	sbrc	r19, 1
    1aae:	40 52       	subi	r20, 0x20	; 32
    1ab0:	41 93       	st	Z+, r20
    1ab2:	02 d0       	rcall	.+4      	; 0x1ab8 <__ultoa_invert+0x84>
    1ab4:	a9 f7       	brne	.-22     	; 0x1aa0 <__ultoa_invert+0x6c>
    1ab6:	ea cf       	rjmp	.-44     	; 0x1a8c <__ultoa_invert+0x58>
    1ab8:	b4 e0       	ldi	r27, 0x04	; 4
    1aba:	a6 95       	lsr	r26
    1abc:	97 95       	ror	r25
    1abe:	87 95       	ror	r24
    1ac0:	77 95       	ror	r23
    1ac2:	67 95       	ror	r22
    1ac4:	ba 95       	dec	r27
    1ac6:	c9 f7       	brne	.-14     	; 0x1aba <__ultoa_invert+0x86>
    1ac8:	00 97       	sbiw	r24, 0x00	; 0
    1aca:	61 05       	cpc	r22, r1
    1acc:	71 05       	cpc	r23, r1
    1ace:	08 95       	ret
    1ad0:	9b 01       	movw	r18, r22
    1ad2:	ac 01       	movw	r20, r24
    1ad4:	0a 2e       	mov	r0, r26
    1ad6:	06 94       	lsr	r0
    1ad8:	57 95       	ror	r21
    1ada:	47 95       	ror	r20
    1adc:	37 95       	ror	r19
    1ade:	27 95       	ror	r18
    1ae0:	ba 95       	dec	r27
    1ae2:	c9 f7       	brne	.-14     	; 0x1ad6 <__ultoa_invert+0xa2>
    1ae4:	62 0f       	add	r22, r18
    1ae6:	73 1f       	adc	r23, r19
    1ae8:	84 1f       	adc	r24, r20
    1aea:	95 1f       	adc	r25, r21
    1aec:	a0 1d       	adc	r26, r0
    1aee:	08 95       	ret

00001af0 <_exit>:
    1af0:	f8 94       	cli

00001af2 <__stop_program>:
    1af2:	ff cf       	rjmp	.-2      	; 0x1af2 <__stop_program>
